Archive member included to satisfy reference by file (symbol)

bin/obj/rslib.a(imx8mp_kernel-1a53598e06c50be6.imx8mp_kernel.241a9a11e0e6ae75-cgu.0.rcgu.o)
                              bin/obj/kernel/init/init.o (rust_kernel_initcalls_stage0)
bin/obj/rslib.a(core-dca77d77b03929cc.core.bbd04c23a4fa3c72-cgu.0.rcgu.o)
                              bin/obj/rslib.a(imx8mp_kernel-1a53598e06c50be6.imx8mp_kernel.241a9a11e0e6ae75-cgu.0.rcgu.o) (core::panicking::panic_fmt)
bin/obj/rslib.a(compiler_builtins-fabd8ee97a026881.compiler_builtins.f286be164c3a919f-cgu.099.rcgu.o)
                              bin/obj/rslib.a(core-dca77d77b03929cc.core.bbd04c23a4fa3c72-cgu.0.rcgu.o) (memcmp)
bin/obj/rslib.a(compiler_builtins-fabd8ee97a026881.compiler_builtins.f286be164c3a919f-cgu.173.rcgu.o)
                              bin/obj/kernel/mm/virt/containers/containers.o (memcpy)
bin/obj/rslib.a(compiler_builtins-fabd8ee97a026881.compiler_builtins.f286be164c3a919f-cgu.242.rcgu.o)
                              bin/obj/drivers/arm_generic_timer/arm_generic_timer.o (__udivti3)
bin/obj/rslib.a(compiler_builtins-fabd8ee97a026881.compiler_builtins.f286be164c3a919f-cgu.295.rcgu.o)
                              bin/obj/kernel/mm/virt/containers/containers.o (memset)
bin/obj/rslib.a(ee225a53f1a5b703-lse_ldadd4_acq_rel.o)
                              bin/obj/lib/lock/corelock.o (__aarch64_ldadd4_acq_rel)
bin/obj/rslib.a(ee225a53f1a5b703-lse_ldadd8_acq_rel.o)
                              bin/obj/kernel/io/term/term.o (__aarch64_ldadd8_acq_rel)
bin/obj/rslib.a(670c1ed24249df13-aarch64.o)
                              bin/obj/rslib.a(ee225a53f1a5b703-lse_ldadd4_acq_rel.o) (__aarch64_have_lse_atomics)
bin/obj/rslib.a(compiler_builtins-fabd8ee97a026881.compiler_builtins.f286be164c3a919f-cgu.018.rcgu.o)
                              bin/obj/rslib.a(compiler_builtins-fabd8ee97a026881.compiler_builtins.f286be164c3a919f-cgu.242.rcgu.o) (compiler_builtins::int::specialized_div_rem::u128_div_rem)

Merging program properties


Discarded input sections

 .llvmbc        0x0000000000000000   0x141958 bin/obj/rslib.a(core-dca77d77b03929cc.core.bbd04c23a4fa3c72-cgu.0.rcgu.o)
 .llvmcmd       0x0000000000000000        0x0 bin/obj/rslib.a(core-dca77d77b03929cc.core.bbd04c23a4fa3c72-cgu.0.rcgu.o)
 .llvmbc        0x0000000000000000     0x10b8 bin/obj/rslib.a(compiler_builtins-fabd8ee97a026881.compiler_builtins.f286be164c3a919f-cgu.099.rcgu.o)
 .llvmcmd       0x0000000000000000        0x0 bin/obj/rslib.a(compiler_builtins-fabd8ee97a026881.compiler_builtins.f286be164c3a919f-cgu.099.rcgu.o)
 .llvmbc        0x0000000000000000      0xbf4 bin/obj/rslib.a(compiler_builtins-fabd8ee97a026881.compiler_builtins.f286be164c3a919f-cgu.173.rcgu.o)
 .llvmcmd       0x0000000000000000        0x0 bin/obj/rslib.a(compiler_builtins-fabd8ee97a026881.compiler_builtins.f286be164c3a919f-cgu.173.rcgu.o)
 .llvmbc        0x0000000000000000      0xc04 bin/obj/rslib.a(compiler_builtins-fabd8ee97a026881.compiler_builtins.f286be164c3a919f-cgu.242.rcgu.o)
 .llvmcmd       0x0000000000000000        0x0 bin/obj/rslib.a(compiler_builtins-fabd8ee97a026881.compiler_builtins.f286be164c3a919f-cgu.242.rcgu.o)
 .llvmbc        0x0000000000000000      0xbf4 bin/obj/rslib.a(compiler_builtins-fabd8ee97a026881.compiler_builtins.f286be164c3a919f-cgu.295.rcgu.o)
 .llvmcmd       0x0000000000000000        0x0 bin/obj/rslib.a(compiler_builtins-fabd8ee97a026881.compiler_builtins.f286be164c3a919f-cgu.295.rcgu.o)
 .llvmbc        0x0000000000000000     0x1ca4 bin/obj/rslib.a(compiler_builtins-fabd8ee97a026881.compiler_builtins.f286be164c3a919f-cgu.018.rcgu.o)
 .llvmcmd       0x0000000000000000        0x0 bin/obj/rslib.a(compiler_builtins-fabd8ee97a026881.compiler_builtins.f286be164c3a919f-cgu.018.rcgu.o)
 .note.gnu.property
                0x0000000000000000        0x0 bin/obj/rslib.a(compiler_builtins-fabd8ee97a026881.compiler_builtins.f286be164c3a919f-cgu.018.rcgu.o)

Memory Configuration

Name             Origin             Length             Attributes
HI_VMEM          0xffff800000000000 0x0000800000000000 xrw
DDR_HI           0x0000000100000000 0x0000000140000000 xrw
DDR_LO           0x0000000040000000 0x00000000c0000000 xrw
DDR              0x0000000040000000 0x0000000200000000 xrw
DDR_KERNEL       0x0000000040200000 0x00000001ffe00000 xrw
RESERVED_3F      0x000000003f000000 0x0000000001000000 rw
RESERVED_3E      0x000000003e000000 0x0000000001000000 rw
DDRC_PHY_BCAST   0x000000003dc00000 0x0000000000400000 rw
DDRC_PERF_MON    0x000000003d800000 0x0000000000400000 rw
DDRC_CTL         0x000000003d400000 0x0000000000400000 rw
RESERVED_3D10    0x000000003d100000 0x0000000000300000 rw
DDRC_BLK_CTRL    0x000000003d000000 0x0000000000100000 rw
DDRC_PHY         0x000000003c000000 0x0000000001000000 rw
AUDIO_DSP        0x000000003b000000 0x0000000001000000 rw
GIC              0x0000000038800000 0x0000000000100000 rw
NPU              0x0000000038500000 0x0000000000200000 rw
VPU              0x0000000038340000 0x0000000000200000 rw
VPU_BLK_CTRL     0x0000000038330000 0x0000000000200000 rw
VPU_VC8000E      0x0000000038320000 0x0000000000200000 rw
VPU_G2           0x0000000038310000 0x0000000000200000 rw
VPU_G1           0x0000000038300000 0x0000000000200000 rw
USB2             0x0000000038200000 0x0000000000100000 rw
USB1             0x0000000038100000 0x0000000000100000 rw
GPU_3D           0x0000000038000000 0x0000000000008000 rw
GPU_2D           0x0000000038008000 0x0000000000008000 rw
QSPI_RX          0x0000000036000000 0x0000000002000000 rw
QSPI_RX_1        0x0000000034000000 0x0000000002000000 rw
QSPI_TX          0x0000000033008000 0x0000000000008000 rw
APBH_DMA         0x0000000033000000 0x0000000000008000 rw
AIPS_1           0x0000000030000000 0x0000000000400000 rw
AIPS_2           0x0000000030400000 0x0000000000400000 rw
AIPS_3           0x0000000030800000 0x0000000000400000 rw
AIPS_4           0x0000000032c00000 0x0000000000400000 rw
AIPS_5           0x0000000030c00000 0x0000000000400000 rw
PCIE_REG         0x0000000018000000 0x0000000008000000 rw
OCRAM            0x0000000000900000 0x0000000000090000 xrw
OCRAM_S          0x0000000000180000 0x0000000000009000 rw
OCRAM_S2         0x0000000000189000 0x0000000000007000 rw
CAAM_SEC_RAM     0x0000000000108000 0x0000000000008000 rw
BOOT_ROM         0x0000000000000000 0x000000000003f000 r
*default*        0x0000000000000000 0xffffffffffffffff

Linker script and memory map

                0x0000000000000004                __NUM_CORES = 0x4
                0x0000000000020000                __EL2_STACK_SIZE = 0x20000
                0x0000000000100000                __EL1_STACK_SIZE = 0x100000
                0x0000000000200000                __TFA_PROTECTED_SIZE = 0x200000
                0xffff800000000000                HI_VA_BASE = 0xffff800000000000
                0x0000800000000000                HI_VA_SIZE = 0x800000000000
                0x0000000040200000                KERNEL_PA_BASE = (ORIGIN (DDR) + __TFA_PROTECTED_SIZE)
                0xffff800040200000                KERNEL_VA_BASE = (KERNEL_PA_BASE + HI_VA_BASE)
                0xffff800040200000                . = KERNEL_VA_BASE

.text           0xffff800040200000    0x37000 load address 0x0000000040200000
                0xffff800040200000                __text_start = .
 *(.text.boot)
 .text.boot     0xffff800040200000       0xb0 bin/obj/__boot/boot.o
                0xffff800040200000                _start
 *(.text*)
 .text          0xffff8000402000b0       0x20 bin/obj/__kernel/mm/mm.o
                0xffff8000402000b0                _get_pc
                0xffff8000402000b8                _mm_kva_to_kpa
                0xffff8000402000c4                _mm_kpa_to_kva
 .text          0xffff8000402000d0       0x40 bin/obj/__kernel/mm/reloc/reloc.o
                0xffff8000402000d0                _jmp_to_with_offset
                0xffff8000402000d8                _reloc_cfg_end
                0xffff800040200104                _return_to_kernel_entry
 .text          0xffff800040200110       0xe0 bin/obj/__kernel/scheduler/scheduler.o
                0xffff800040200110                _scheduler_loop_cpu_enter
                0xffff8000402001d8                _scheduler_loop_cpu_exit
 .text          0xffff8000402001f0       0x40 bin/obj/__arm/cache/cache.o
                0xffff8000402001f0                _cache_flush_range
 .text          0xffff800040200230       0x3c bin/obj/__arm/cache/icache.o
                0xffff800040200230                _icache_flush_range
 .text          0xffff80004020026c       0x3c bin/obj/__arm/cache/dcache.o
                0xffff80004020026c                _dcache_flush_range
 *fill*         0xffff8000402002a8        0x8 
 .text          0xffff8000402002b0       0x10 bin/obj/__arm/tfa/smccc.o
                0xffff8000402002b0                _smc_call
 .text          0xffff8000402002c0      0x114 bin/obj/__arm/sysregs/arm_generic_timer.o
                0xffff8000402002c0                _ARM_CNTFRQ_EL0_set
                0xffff8000402002cc                _ARM_CNTFRQ_EL0_get
                0xffff8000402002d4                _ARM_CNTPCT_EL0_get
                0xffff8000402002dc                _ARM_CNTVCT_EL0_get
                0xffff8000402002e4                _ARM_CNTP_CTL_EL0_set
                0xffff8000402002f0                _ARM_CNTP_CTL_EL0_get
                0xffff8000402002f8                _ARM_CNTP_CVAL_EL0_set
                0xffff800040200304                _ARM_CNTP_CVAL_EL0_get
                0xffff80004020030c                _ARM_CNTP_TVAL_EL0_set
                0xffff800040200318                _ARM_CNTP_TVAL_EL0_get
                0xffff800040200320                _ARM_CNTV_CTL_EL0_set
                0xffff80004020032c                _ARM_CNTV_CTL_EL0_get
                0xffff800040200334                _ARM_CNTV_CVAL_EL0_set
                0xffff800040200340                _ARM_CNTV_CVAL_EL0_get
                0xffff800040200348                _ARM_CNTV_TVAL_EL0_set
                0xffff800040200354                _ARM_CNTV_TVAL_EL0_get
                0xffff80004020035c                _ARM_CNTKCTL_EL1_set
                0xffff800040200368                _ARM_CNTKCTL_EL1_get
                0xffff800040200370                _ARM_CNTHCTL_EL2_set
                0xffff80004020037c                _ARM_CNTHCTL_EL2_get
                0xffff800040200384                _ARM_CNTVOFF_EL2_set
                0xffff800040200390                _ARM_CNTVOFF_EL2_get
                0xffff800040200398                _ARM_CNTPS_CTL_EL1_set
                0xffff8000402003a4                _ARM_CNTPS_CTL_EL1_get
                0xffff8000402003ac                _ARM_CNTPS_CVAL_EL1_set
                0xffff8000402003b8                _ARM_CNTPS_CVAL_EL1_get
                0xffff8000402003c0                _ARM_CNTPS_TVAL_EL1_set
                0xffff8000402003cc                _ARM_CNTPS_TVAL_EL1_get
 *fill*         0xffff8000402003d4      0x42c 
 .text          0xffff800040200800     0x1100 bin/obj/__arm/exceptions/el2_vectors.o
                0xffff800040200800                _el2_init_vector
 .text          0xffff800040201900       0x68 bin/obj/__arm/exceptions/exceptions.o
                0xffff800040201900                _exceptions_get_DAIF
                0xffff800040201908                _fiq_exceptions_enable
                0xffff800040201914                _irq_exceptions_enable
                0xffff800040201920                _serror_exceptions_enable
                0xffff80004020192c                _debug_exceptions_enable
                0xffff800040201938                _fiq_exceptions_disable
                0xffff800040201944                _irq_exceptions_disable
                0xffff800040201950                _serror_exceptions_disable
                0xffff80004020195c                _debug_exceptions_disable
 *fill*         0xffff800040201968      0x698 
 .text          0xffff800040202000     0x1f00 bin/obj/__arm/exceptions/el1_vectors.o
                0xffff800040202000                _el1_init_vector
 .text          0xffff800040203f00        0x8 bin/obj/__arm/cpu.o
                0xffff800040203f00                _ARM_get_sp
 *fill*         0xffff800040203f08        0x8 
 .text          0xffff800040203f10       0xa0 bin/obj/__arm/mmu/regs/mmu_sysregs.o
                0xffff800040203f10                _mmu_get_MAIR_EL1
                0xffff800040203f18                _mmu_set_MAIR_EL1
                0xffff800040203f50                _mmu_get_SCTLR_EL1
                0xffff800040203f58                _mmu_set_SCTLR_EL1
                0xffff800040203f64                _mmu_get_TTBR0_EL1
                0xffff800040203f6c                _mmu_set_TTBR0_EL1
                0xffff800040203f7c                _mmu_get_TTBR1_EL1
                0xffff800040203f84                _mmu_set_TTBR1_EL1
                0xffff800040203f94                _mmu_get_TCR_EL1
                0xffff800040203f9c                _mmu_set_TCR_EL1
                0xffff800040203fa8                _mmu_get_ID_AA64MMFR0_EL1
 .text          0xffff800040203fb0       0x34 bin/obj/__lib/lock/spinlock_irq.o
                0xffff800040203fb0                _spin_lock_irqsave
                0xffff800040203fcc                _spin_unlock_irqrestore
 *fill*         0xffff800040203fe4        0xc 
 .text          0xffff800040203ff0       0x58 bin/obj/__lib/lock/spinlock.o
                0xffff800040203ff0                _spin_try_lock
                0xffff800040204018                _spin_lock
                0xffff800040204038                _spin_unlock
 *fill*         0xffff800040204048        0x8 
 .text          0xffff800040204050       0x14 bin/obj/__lib/lock/irqlock.o
                0xffff800040204050                _irq_lock
                0xffff80004020405c                _irq_unlock
 .text          0xffff800040204064       0xc0 bin/obj/__lib/lock/corelock.o
                0xffff800040204064                _core_lock
                0xffff8000402040a8                _core_unlock
                0xffff8000402040d8                _core_try_lock
 *fill*         0xffff800040204124        0xc 
 .text          0xffff800040204130      0x250 bin/obj/__lib/mem/memcpy/memcpy.o
                0xffff800040204130                _memcpy
                0xffff800040204240                _memcpy64
                0xffff800040204270                _memcpy32
                0xffff8000402042a0                _memcpy16
                0xffff8000402042d0                _memcpy8
                0xffff800040204300                _memcpy4
                0xffff800040204330                _memcpy2
                0xffff800040204360                _memcpy1
 .text          0xffff800040204380      0x124 bin/obj/__lib/mem/memzero/memzero.o
                0xffff800040204380                _memzero
                0xffff800040204478                _memzero64
 .text          0xffff8000402044a4        0x8 bin/obj/__lib/mem/mem.o
                0xffff8000402044a4                _ID_AA64MMFR0_EL1_read
 *fill*         0xffff8000402044ac        0x4 
 .text          0xffff8000402044b0       0x60 bin/obj/__boot/clean_bss.o
                0xffff8000402044b0                _clean_bss
 .text          0xffff800040204510       0x8c bin/obj/__boot/el1.o
                0xffff800040204510                _switch_to_el1
                0xffff800040204570                _el1_entry
 *fill*         0xffff80004020459c        0x4 
 .text          0xffff8000402045a0       0x98 bin/obj/__boot/stacks.o
                0xffff8000402045a0                _setup_stack_el1
                0xffff8000402045d4                _reset_stack_el1
 *fill*         0xffff800040204638        0x8 
 .text          0xffff800040204640       0x58 bin/obj/__boot/secondary_entry.o
                0xffff800040204640                _secondary_entry
 .text          0xffff800040204698      0x108 bin/obj/__boot/gpr.o
                0xffff800040204698                _init_gpr
 .text          0xffff8000402047a0        0x0 bin/obj/__boot/boot.o
 .text          0xffff8000402047a0        0x8 bin/obj/__drivers/tmu/tmu_critical_default.o
                0xffff8000402047a0                _TMU_critical_hang
 *fill*         0xffff8000402047a8        0x8 
 .text          0xffff8000402047b0       0x3c bin/obj/__drivers/interrupts/gicv3/gicv3_arm_interface.o
                0xffff8000402047b0                _GICV3_ARM_ICC_SRE_EL1_write
                0xffff8000402047bc                _GICV3_ARM_ICC_PMR_EL1_write
                0xffff8000402047c8                _GICV3_ARM_ICC_PMR_EL1_read
                0xffff8000402047d0                _GICV3_ARM_ICC_IGRPEN1_EL1_write
                0xffff8000402047dc                _GICV3_ARM_ICC_IAR1_EL1_read
                0xffff8000402047e4                _GICV3_ARM_ICC_EOIR1_EL1_write
 .text          0xffff8000402047ec        0x0 bin/obj/kernel/devices/drivers.o
 *fill*         0xffff8000402047ec        0x4 
 .text          0xffff8000402047f0       0x14 bin/obj/kernel/init/early_init.o
                0xffff8000402047f0                kernel_early_init
 *fill*         0xffff800040204804        0xc 
 .text          0xffff800040204810      0x104 bin/obj/kernel/init/init_drivers.o
 *fill*         0xffff800040204914        0xc 
 .text          0xffff800040204920      0x114 bin/obj/kernel/init/init.o
                0xffff800040204920                kernel_init
 *fill*         0xffff800040204a34        0xc 
 .text          0xffff800040204a40       0x48 bin/obj/kernel/lib/smp.o
                0xffff800040204a40                wake_core
 *fill*         0xffff800040204a88        0x8 
 .text          0xffff800040204a90      0x4c0 bin/obj/kernel/lib/kvec.o
                0xffff800040204a90                kvec_push
                0xffff800040204bd0                kvec_pop
                0xffff800040204e50                kvec_set
                0xffff800040204ed0                kvec_get_copy
                0xffff800040204f20                kvec_get_mut
 .text          0xffff800040204f50      0xd1c bin/obj/kernel/mm/phys/page_allocator.o
                0xffff8000402050c0                page_malloc
                0xffff800040205270                page_free
                0xffff800040205430                page_allocator_update_tag
                0xffff800040205550                page_allocator_get_data
                0xffff800040205630                page_allocator_set_data
                0xffff800040205710                page_allocator_init
                0xffff8000402058d0                page_allocator_update_memregs
                0xffff800040205b70                page_allocator_debug
 .text          0xffff800040205c6c        0x0 bin/obj/kernel/mm/init/mem_regions/mem_regions.o
 *fill*         0xffff800040205c6c        0x4 
 .text          0xffff800040205c70      0xdd0 bin/obj/kernel/mm/init/mem_regions/early_kalloc.o
                0xffff800040206020                early_kalloc_init
                0xffff800040206680                early_kalloc
                0xffff800040206840                early_kalloc_get_memregs
                0xffff800040206970                early_kalloc_debug
 .text          0xffff800040206a40       0x64 bin/obj/kernel/mm/init/init.o
                0xffff800040206a40                mm_early_init
                0xffff800040206a90                mm_init
 *fill*         0xffff800040206aa4        0xc 
 .text          0xffff800040206ab0      0x4d4 bin/obj/kernel/mm/init/identity_mapping.o
                0xffff800040206b80                early_identity_mapping
 *fill*         0xffff800040206f84        0xc 
 .text          0xffff800040206f90      0x690 bin/obj/kernel/mm/virt/containers/containers.o
                0xffff800040206f90                vmalloc_init_containers
                0xffff800040207020                get_new_fva_node
                0xffff800040207120                get_new_rva_node
                0xffff800040207220                free_fva_node
                0xffff800040207370                free_rva_node
                0xffff8000402074d0                vmalloc_containers_debug_fva
                0xffff800040207580                vmalloc_containers_debug_rva
 .text          0xffff800040207620      0x24c bin/obj/kernel/mm/virt/mdt/mdt.o
                0xffff800040207620                vmalloc_pa_mdt_init
                0xffff800040207680                vmalloc_pa_mdt_push
                0xffff8000402077c0                vmalloc_pa_mdt_free
 *fill*         0xffff80004020786c        0x4 
 .text          0xffff800040207870     0x1798 bin/obj/kernel/mm/virt/vmalloc.o
                0xffff800040207cd0                vmalloc_init
                0xffff800040207d60                vmalloc_update_memregs
                0xffff800040207fb0                vmalloc
                0xffff800040208140                vmalloc_get_free_bytes
                0xffff800040208190                vmalloc_get_reserved_bytes
                0xffff8000402081e0                vmalloc_update_tag
                0xffff800040208300                vmalloc_get_addr_info
                0xffff8000402084b0                vmalloc_get_token
                0xffff800040208570                __vmalloc_token__vmalloc_get_mdt
                0xffff800040208580                __voidptr__vmalloc_get_mdt
                0xffff800040208610                vmalloc_push_pa
                0xffff800040208620                vmalloc_get_pa_count
                0xffff800040208630                vmalloc_get_pa_info
                0xffff800040208690                __vmalloc_token__vfree
                0xffff800040208940                __voidptr__vfree
                0xffff8000402089d0                vmalloc_debug_free
                0xffff800040208bb0                vmalloc_debug_reserved
                0xffff800040208e10                vmalloc_debug_nodes
 *fill*         0xffff800040209008        0x8 
 .text          0xffff800040209010      0x61c bin/obj/kernel/mm/malloc/raw_kmalloc/raw_kmalloc.o
                0xffff800040209010                raw_kmalloc_init
                0xffff800040209020                __raw_kmalloc
                0xffff800040209420                raw_kfree
                0xffff800040209610                raw_kmalloc_lock
                0xffff800040209620                raw_kmalloc_unlock
 *fill*         0xffff80004020962c        0x4 
 .text          0xffff800040209630     0x1100 bin/obj/kernel/mm/malloc/cache_malloc/cache_malloc.o
                0xffff800040209630                cache_malloc_init
                0xffff800040209670                cache_malloc
                0xffff800040209e90                cache_free
                0xffff80004020a6a0                cache_malloc_size_from_ptr
 .text          0xffff80004020a730      0x360 bin/obj/kernel/mm/malloc/internal/reserve_malloc.o
                0xffff80004020a730                reserve_malloc_init
                0xffff80004020a890                reserve_malloc
                0xffff80004020a9a0                reserve_malloc_fill
 .text          0xffff80004020aa90      0x118 bin/obj/kernel/mm/malloc/kmalloc/kmalloc.o
                0xffff80004020aa90                kmalloc
                0xffff80004020ab00                kfree
 *fill*         0xffff80004020aba8        0x8 
 .text          0xffff80004020abb0      0xa50 bin/obj/kernel/mm/malloc/umalloc.o
                0xffff80004020ac90                umalloc
                0xffff80004020afe0                umalloc_assign_pa
                0xffff80004020b360                ufree
                0xffff80004020b480                uregion_is_allocated
                0xffff80004020b4e0                uregion_is_assigned
                0xffff80004020b590                tregion_find_free
 .text          0xffff80004020b600      0x1f0 bin/obj/kernel/mm/reloc/reloc.o
                0xffff80004020b600                mm_reloc_kernel
                0xffff80004020b680                reloc_cfg_end
 .text          0xffff80004020b7f0      0x284 bin/obj/kernel/mm/mm_mmu/mm_mmu.o
                0xffff80004020b8b0                mm_mmu_mapping_new
                0xffff80004020b970                mm_mmu_early_init
                0xffff80004020ba30                mm_mmu_core_handler_get
                0xffff80004020ba50                mm_mmu_core_handler_get_self
 *fill*         0xffff80004020ba74        0xc 
 .text          0xffff80004020ba80       0x6c bin/obj/kernel/mm/mm.o
                0xffff80004020ba80                mm_kernel_is_relocated
                0xffff80004020baa0                mm_dbg_print_mmu
                0xffff80004020bab0                mm_va_is_in_kmap_range
 *fill*         0xffff80004020baec        0x4 
 .text          0xffff80004020baf0      0x42c bin/obj/kernel/mm/mm_info.o
                0xffff80004020baf0                mm_info_init
                0xffff80004020bec0                mm_info_ddr_size
                0xffff80004020bed0                mm_info_ddr_start
                0xffff80004020bee0                mm_info_ddr_end
                0xffff80004020bef0                mm_info_kernel_start
                0xffff80004020bf00                mm_info_page_count
                0xffff80004020bf10                mm_info_mm_addr_space
 *fill*         0xffff80004020bf1c        0x4 
 .text          0xffff80004020bf20      0x370 bin/obj/kernel/mm/elf.o
                0xffff80004020bf20                elf_load
 .text          0xffff80004020c290      0x18c bin/obj/kernel/io/term/buffers.o
                0xffff80004020c290                term_buffer_push
                0xffff80004020c360                term_buffer_pop
                0xffff80004020c3f0                term_buffer_peek
 *fill*         0xffff80004020c41c        0x4 
 .text          0xffff80004020c420      0x308 bin/obj/kernel/io/term/term.o
                0xffff80004020c480                term_new
                0xffff80004020c4e0                term_delete
                0xffff80004020c530                term_printc
                0xffff80004020c5a0                term_prints
                0xffff80004020c630                term_printf
                0xffff80004020c6a0                term_flush
 *fill*         0xffff80004020c728        0x8 
 .text          0xffff80004020c730      0x180 bin/obj/kernel/io/stdio.o
                0xffff80004020c730                io_early_init
                0xffff80004020c7d0                io_init
                0xffff80004020c830                io_flush
                0xffff80004020c840                fkprintf
                0xffff80004020c8a0                fkprint
 .text          0xffff80004020c8b0       0xc0 bin/obj/kernel/io/stdputc.o
 .text          0xffff80004020c970      0x23c bin/obj/kernel/panic/panic_exception/esr/data_abort.o
                0xffff80004020c970                print_data_abort_info
 *fill*         0xffff80004020cbac        0x4 
 .text          0xffff80004020cbb0      0x11c bin/obj/kernel/panic/panic_exception/esr/esr.o
                0xffff80004020cbb0                print_esr
 *fill*         0xffff80004020cccc        0x4 
 .text          0xffff80004020ccd0       0xf4 bin/obj/kernel/panic/panic_exception/panic_exception_handlers.o
                0xffff80004020ccd0                handle_sync_panic
                0xffff80004020cd50                handle_irq_panic
                0xffff80004020cdb0                handle_fiq_panic
                0xffff80004020cdc0                handle_serror_panic
 .text          0xffff80004020cdc4        0x0 bin/obj/kernel/panic/panic.o
 .text.unlikely
                0xffff80004020cdc4      0x248 bin/obj/kernel/panic/panic.o
                0xffff80004020cfe4                panic
                0xffff80004020cff4                panicr
 *fill*         0xffff80004020d00c        0x4 
 .text          0xffff80004020d010       0xdc bin/obj/kernel/exception/el0/sync/sync.o
                0xffff80004020d010                exception_handler_sync
 *fill*         0xffff80004020d0ec        0x4 
 .text          0xffff80004020d0f0      0x180 bin/obj/kernel/exception/el1/irq.o
                0xffff80004020d230                exception_handler_irq
 .text          0xffff80004020d270       0xd4 bin/obj/kernel/scheduler/task.o
                0xffff80004020d270                task_ctl_init
                0xffff80004020d290                task_new
                0xffff80004020d340                task_delete
 *fill*         0xffff80004020d344        0xc 
 .text          0xffff80004020d350      0x454 bin/obj/kernel/scheduler/scheduler.o
                0xffff80004020d350                scheduler_init
                0xffff80004020d3a0                scheduler_loop_cpu_enter
                0xffff80004020d480                scheduler_loop_cpu_exit
                0xffff80004020d4a0                scheduler_ectx_save
                0xffff80004020d500                schedurer_ectx_restore
                0xffff80004020d5c0                schedule_thread
                0xffff80004020d6b0                unschedule_thread
 *fill*         0xffff80004020d7a4        0xc 
 .text          0xffff80004020d7b0       0xdc bin/obj/kernel/scheduler/thread.o
                0xffff80004020d7b0                thread_assign_stack
 *fill*         0xffff80004020d88c        0x4 
 .text          0xffff80004020d890       0x88 bin/obj/kernel/syscall/handlers/exit.o
                0xffff80004020d890                syscall64_exit
 *fill*         0xffff80004020d918        0x8 
 .text          0xffff80004020d920       0xdc bin/obj/kernel/syscall/handlers/print.o
                0xffff80004020d920                syscall64_print
 *fill*         0xffff80004020d9fc        0x4 
 .text          0xffff80004020da00       0x54 bin/obj/kernel/syscall/syscall.o
                0xffff80004020da00                sysc64_dispatch
 .text          0xffff80004020da54        0x0 bin/obj/kernel/userspace_embedded_examples.o
 *fill*         0xffff80004020da54        0xc 
 .text          0xffff80004020da60       0xf4 bin/obj/kernel/kernel_entry.o
                0xffff80004020da60                kernel_entry
 .text          0xffff80004020db54        0x0 bin/obj/arm/tfa/smccc.o
 *fill*         0xffff80004020db54        0xc 
 .text          0xffff80004020db60       0x48 bin/obj/arm/exceptions/handlers/el1/el1_low_a32_serror.o
                0xffff80004020db60                el1_low_a32_serror_handler
 *fill*         0xffff80004020dba8        0x8 
 .text          0xffff80004020dbb0       0x48 bin/obj/arm/exceptions/handlers/el1/el1_low_a32_fiq.o
                0xffff80004020dbb0                el1_low_a32_fiq_handler
 *fill*         0xffff80004020dbf8        0x8 
 .text          0xffff80004020dc00       0x48 bin/obj/arm/exceptions/handlers/el1/el1_cur_spx_fiq.o
                0xffff80004020dc00                el1_cur_spx_fiq_handler
 *fill*         0xffff80004020dc48        0x8 
 .text          0xffff80004020dc50       0x48 bin/obj/arm/exceptions/handlers/el1/el1_cur_spx_serror.o
                0xffff80004020dc50                el1_cur_spx_serror_handler
 *fill*         0xffff80004020dc98        0x8 
 .text          0xffff80004020dca0       0x48 bin/obj/arm/exceptions/handlers/el1/el1_low_a32_irq.o
                0xffff80004020dca0                el1_low_a32_irq_handler
 *fill*         0xffff80004020dce8        0x8 
 .text          0xffff80004020dcf0       0x48 bin/obj/arm/exceptions/handlers/el1/el1_low_a64_fiq.o
                0xffff80004020dcf0                el1_low_a64_fiq_handler
 *fill*         0xffff80004020dd38        0x8 
 .text          0xffff80004020dd40       0x48 bin/obj/arm/exceptions/handlers/el1/el1_cur_sp0_sync.o
                0xffff80004020dd40                el1_cur_sp0_sync_handler
 *fill*         0xffff80004020dd88        0x8 
 .text          0xffff80004020dd90       0x48 bin/obj/arm/exceptions/handlers/el1/el1_low_a64_serror.o
                0xffff80004020dd90                el1_low_a64_serror_handler
 *fill*         0xffff80004020ddd8        0x8 
 .text          0xffff80004020dde0       0x48 bin/obj/arm/exceptions/handlers/el1/el1_low_a32_sync.o
                0xffff80004020dde0                el1_low_a32_sync_handler
 *fill*         0xffff80004020de28        0x8 
 .text          0xffff80004020de30       0x48 bin/obj/arm/exceptions/handlers/el1/el1_cur_spx_sync.o
                0xffff80004020de30                el1_cur_spx_sync_handler
 *fill*         0xffff80004020de78        0x8 
 .text          0xffff80004020de80       0x48 bin/obj/arm/exceptions/handlers/el1/el1_cur_sp0_fiq.o
                0xffff80004020de80                el1_cur_sp0_fiq_handler
 *fill*         0xffff80004020dec8        0x8 
 .text          0xffff80004020ded0       0x48 bin/obj/arm/exceptions/handlers/el1/el1_cur_sp0_serror.o
                0xffff80004020ded0                el1_cur_sp0_serror_handler
 *fill*         0xffff80004020df18        0x8 
 .text          0xffff80004020df20       0x48 bin/obj/arm/exceptions/handlers/el1/el1_cur_sp0_irq.o
                0xffff80004020df20                el1_cur_sp0_irq_handler
 *fill*         0xffff80004020df68        0x8 
 .text          0xffff80004020df70        0x4 bin/obj/arm/exceptions/handlers/el1/el1_cur_spx_irq.o
                0xffff80004020df70                el1_cur_spx_irq_handler
 *fill*         0xffff80004020df74        0xc 
 .text          0xffff80004020df80        0x4 bin/obj/arm/exceptions/handlers/el1/el1_low_a64_irq.o
                0xffff80004020df80                el1_low_a64_irq_handler
 *fill*         0xffff80004020df84        0xc 
 .text          0xffff80004020df90        0x4 bin/obj/arm/exceptions/handlers/el1/el1_low_a64_sync.o
                0xffff80004020df90                el1_low_a64_sync_handler
 *fill*         0xffff80004020df94        0xc 
 .text          0xffff80004020dfa0       0x48 bin/obj/arm/exceptions/handlers/el2/el2_low_a32_serror.o
                0xffff80004020dfa0                el2_low_a32_serror_handler
 *fill*         0xffff80004020dfe8        0x8 
 .text          0xffff80004020dff0       0x48 bin/obj/arm/exceptions/handlers/el2/el2_cur_spx_serror.o
                0xffff80004020dff0                el2_cur_spx_serror_handler
 *fill*         0xffff80004020e038        0x8 
 .text          0xffff80004020e040       0x48 bin/obj/arm/exceptions/handlers/el2/el2_low_a64_serror.o
                0xffff80004020e040                el2_low_a64_serror_handler
 *fill*         0xffff80004020e088        0x8 
 .text          0xffff80004020e090       0x48 bin/obj/arm/exceptions/handlers/el2/el2_low_a64_sync.o
                0xffff80004020e090                el2_low_a64_sync_handler
 *fill*         0xffff80004020e0d8        0x8 
 .text          0xffff80004020e0e0       0x48 bin/obj/arm/exceptions/handlers/el2/el2_cur_sp0_irq.o
                0xffff80004020e0e0                el2_cur_sp0_irq_handler
 *fill*         0xffff80004020e128        0x8 
 .text          0xffff80004020e130       0x48 bin/obj/arm/exceptions/handlers/el2/el2_cur_sp0_serror.o
                0xffff80004020e130                el2_cur_sp0_serror_handler
 *fill*         0xffff80004020e178        0x8 
 .text          0xffff80004020e180       0x48 bin/obj/arm/exceptions/handlers/el2/el2_low_a64_irq.o
                0xffff80004020e180                el2_low_a64_irq_handler
 *fill*         0xffff80004020e1c8        0x8 
 .text          0xffff80004020e1d0       0x48 bin/obj/arm/exceptions/handlers/el2/el2_low_a64_fiq.o
                0xffff80004020e1d0                el2_low_a64_fiq_handler
 *fill*         0xffff80004020e218        0x8 
 .text          0xffff80004020e220       0x48 bin/obj/arm/exceptions/handlers/el2/el2_cur_spx_fiq.o
                0xffff80004020e220                el2_cur_spx_fiq_handler
 *fill*         0xffff80004020e268        0x8 
 .text          0xffff80004020e270       0x48 bin/obj/arm/exceptions/handlers/el2/el2_low_a32_irq.o
                0xffff80004020e270                el2_low_a32_irq_handler
 *fill*         0xffff80004020e2b8        0x8 
 .text          0xffff80004020e2c0       0x48 bin/obj/arm/exceptions/handlers/el2/el2_cur_sp0_fiq.o
                0xffff80004020e2c0                el2_cur_sp0_fiq_handler
 *fill*         0xffff80004020e308        0x8 
 .text          0xffff80004020e310       0x48 bin/obj/arm/exceptions/handlers/el2/el2_low_a32_fiq.o
                0xffff80004020e310                el2_low_a32_fiq_handler
 *fill*         0xffff80004020e358        0x8 
 .text          0xffff80004020e360       0x48 bin/obj/arm/exceptions/handlers/el2/el2_cur_spx_sync.o
                0xffff80004020e360                el2_cur_spx_sync_handler
 *fill*         0xffff80004020e3a8        0x8 
 .text          0xffff80004020e3b0       0x48 bin/obj/arm/exceptions/handlers/el2/el2_low_a32_sync.o
                0xffff80004020e3b0                el2_low_a32_sync_handler
 *fill*         0xffff80004020e3f8        0x8 
 .text          0xffff80004020e400       0x48 bin/obj/arm/exceptions/handlers/el2/el2_cur_sp0_sync.o
                0xffff80004020e400                el2_cur_sp0_sync_handler
 *fill*         0xffff80004020e448        0x8 
 .text          0xffff80004020e450       0x48 bin/obj/arm/exceptions/handlers/el2/el2_cur_spx_irq.o
                0xffff80004020e450                el2_cur_spx_irq_handler
 *fill*         0xffff80004020e498        0x8 
 .text          0xffff80004020e4a0      0x24c bin/obj/arm/exceptions/handlers/exception_macros.o
                0xffff80004020e4a0                select_src_enum_
                0xffff80004020e5c0                select_exception_type_enum_
                0xffff80004020e6a0                exception_panic
 *fill*         0xffff80004020e6ec        0x4 
 .text          0xffff80004020e6f0      0x198 bin/obj/arm/exceptions/exceptions.o
                0xffff80004020e6f0                arm_exceptions_get_status
                0xffff80004020e740                arm_exceptions_set_status
                0xffff80004020e7a0                arm_exceptions_enable
                0xffff80004020e810                arm_exceptions_disable
                0xffff80004020e880                arm_get_exception_level
 *fill*         0xffff80004020e888        0x8 
 .text          0xffff80004020e890     0x11fc bin/obj/arm/mmu/mmu.o
                0xffff80004020eca0                mmu_is_active
                0xffff80004020ecc0                mmu_map
                0xffff80004020f470                mmu_unmap
 *fill*         0xffff80004020fa8c        0x4 
 .text          0xffff80004020fa90      0xfa4 bin/obj/arm/mmu/mmu_core.o
                0xffff80004020fc50                mmu_core_set_mapping
                0xffff80004020fdf0                mmu_core_set_d_cache
                0xffff80004020fe90                mmu_core_set_i_cache
                0xffff80004020ff40                mmu_core_set_align_trap
                0xffff80004020fff0                mmu_core_set_lo_enabled
                0xffff8000402100a0                mmu_core_set_hi_enabled
                0xffff800040210150                mmu_core_set_lo_va_bits
                0xffff800040210200                mmu_core_set_hi_va_bits
                0xffff8000402102b0                mmu_core_set_lo_granularity
                0xffff8000402103c0                mmu_core_set_hi_granularity
                0xffff8000402104d0                mmu_core_handle_new
                0xffff800040210690                mmu_delete_mapping
                0xffff8000402106d0                mmu_core_activate
                0xffff8000402109b0                mmu_core_deactivate
 *fill*         0xffff800040210a34        0xc 
 .text          0xffff800040210a40       0x28 bin/obj/arm/cpu.o
                0xffff800040210a40                ARM_get_cpu_affinity
 *fill*         0xffff800040210a68        0x8 
 .text          0xffff800040210a70      0x13c bin/obj/lib/lock/corelock.o
                0xffff800040210a70                core_lock
                0xffff800040210aa0                core_unlock
                0xffff800040210b70                core_try_lock
 .text          0xffff800040210bac        0x0 bin/obj/lib/lock/unlock_defer.o
 *fill*         0xffff800040210bac        0x4 
 .text          0xffff800040210bb0       0xc4 bin/obj/lib/string/string.o
                0xffff800040210bb0                strcopy
                0xffff800040210bf0                strcmp
 *fill*         0xffff800040210c74        0xc 
 .text          0xffff800040210c80      0x7fc bin/obj/lib/string/fmt.o
                0xffff800040210c80                uint8_t_to_ascii_char
                0xffff800040210d00                stdint_to_ascii
                0xffff800040211020                str_fmt_print
 *fill*         0xffff80004021147c        0x4 
 .text          0xffff800040211480      0x1c8 bin/obj/lib/mem/memcpy/memcpy.o
                0xffff800040211480                memcpy64_aligned
                0xffff8000402115d0                memcpy64
 *fill*         0xffff800040211648        0x8 
 .text          0xffff800040211650       0x84 bin/obj/lib/mem/mem.o
                0xffff800040211650                pa_supported_bits
 *fill*         0xffff8000402116d4        0xc 
 .text          0xffff8000402116e0      0x498 bin/obj/drivers/arm_generic_timer/arm_generic_timer.o
                0xffff8000402116e0                AGT_ns_to_cycles
                0xffff800040211730                AGT_us_to_cycles
                0xffff800040211770                AGT_cnt_cycles
                0xffff800040211780                AGT_cnt_freq
                0xffff800040211790                AGT_cnt_time_ns
                0xffff8000402117c0                AGT_cnt_time_us
                0xffff8000402117f0                AGT_timer_schedule_cycles
                0xffff8000402118b0                AGT_timer_schedule_delta
                0xffff8000402119b0                AGT_timer_is_armed
                0xffff8000402119f0                AGT_timer_has_fired
                0xffff800040211a70                AGT_timer_cancel
                0xffff800040211ab0                AGT_handle_irq
                0xffff800040211b50                AGT_init_stage0
 *fill*         0xffff800040211b78        0x8 
 .text          0xffff800040211b80      0x9e0 bin/obj/drivers/tmu/tmu.o
                0xffff800040211c80                TMU_init_stage0
                0xffff800040211d40                TMU_init_stage1
                0xffff800040211f00                TMU_handle_irq
                0xffff800040211fc0                TMU_set_warn_temp
                0xffff800040212160                TMU_get_warnings_enabled
                0xffff8000402121c0                TMU_enable_warnings
                0xffff800040212230                TMU_disable_warnings
                0xffff8000402122a0                TMU_warn_pending
                0xffff8000402122e0                TMU_set_critical_temp
                0xffff800040212470                TMU_get_temp
 .text          0xffff800040212560      0x8bc bin/obj/drivers/interrupts/gicv3/gicv3.o
                0xffff800040212650                GICV3_set_cpu_priority_threshold
                0xffff800040212660                GICV3_set_spi_group1ns
                0xffff800040212710                GICV3_route_spi_to_cpu
                0xffff8000402127c0                GICV3_route_spi_to_self
                0xffff800040212880                GICV3_enable_spi
                0xffff800040212920                GICV3_set_priority
                0xffff8000402129d0                GICV3_set_edge_triggered
                0xffff800040212a80                GICV3_set_level_sensitive
                0xffff800040212b30                GICV3_wake_redistributor
                0xffff800040212b70                GICV3_init_distributor
                0xffff800040212b90                GICV3_init_cpu
                0xffff800040212bc0                GICV3_init_irq
                0xffff800040212d00                GICV3_get_intid_el1
                0xffff800040212d20                GICV3_ack_intid_el1
                0xffff800040212d30                GICV3_enable_ppi
 *fill*         0xffff800040212e1c        0x4 
 .text          0xffff800040212e20      0x6a0 bin/obj/drivers/uart/uart.o
                0xffff800040212fa0                uart_reset
                0xffff800040213060                uart_read
                0xffff800040213070                uart_handle_irq
                0xffff800040213220                uart_init_stage0
                0xffff8000402132f0                uart_init_stage1
                0xffff800040213330                uart_putc_sync
                0xffff800040213360                uart_putc
                0xffff8000402133c0                uart_early_init
                0xffff800040213480                uart_putc_early
 .text          0xffff8000402134c0        0x0 bin/obj/rslib.a(imx8mp_kernel-1a53598e06c50be6.imx8mp_kernel.241a9a11e0e6ae75-cgu.0.rcgu.o)
 .text._RNvCsiGVaDesi5rv_7___rustc17rust_begin_unwind
                0xffff8000402134c0        0x4 bin/obj/rslib.a(imx8mp_kernel-1a53598e06c50be6.imx8mp_kernel.241a9a11e0e6ae75-cgu.0.rcgu.o)
                0xffff8000402134c0                __rustc::rust_begin_unwind
 .text.pow2_ring_buffer_new
                0xffff8000402134c4       0x70 bin/obj/rslib.a(imx8mp_kernel-1a53598e06c50be6.imx8mp_kernel.241a9a11e0e6ae75-cgu.0.rcgu.o)
                0xffff8000402134c4                pow2_ring_buffer_new
 .text.pow2_ring_buffer_pop
                0xffff800040213534       0x90 bin/obj/rslib.a(imx8mp_kernel-1a53598e06c50be6.imx8mp_kernel.241a9a11e0e6ae75-cgu.0.rcgu.o)
                0xffff800040213534                pow2_ring_buffer_pop
 .text.pow2_ring_buffer_push
                0xffff8000402135c4       0xbc bin/obj/rslib.a(imx8mp_kernel-1a53598e06c50be6.imx8mp_kernel.241a9a11e0e6ae75-cgu.0.rcgu.o)
                0xffff8000402135c4                pow2_ring_buffer_push
 .text.rust_kernel_initcalls_stage0
                0xffff800040213680        0x4 bin/obj/rslib.a(imx8mp_kernel-1a53598e06c50be6.imx8mp_kernel.241a9a11e0e6ae75-cgu.0.rcgu.o)
                0xffff800040213680                rust_kernel_initcalls_stage1
                0xffff800040213680                rust_kernel_initcalls_stage2
                0xffff800040213680                rust_kernel_initcalls_stage0
 .text.unlikely.rust_test_panic
                0xffff800040213684       0x2c bin/obj/rslib.a(imx8mp_kernel-1a53598e06c50be6.imx8mp_kernel.241a9a11e0e6ae75-cgu.0.rcgu.o)
                0xffff800040213684                rust_test_panic
 .text.uart_rx_len
                0xffff8000402136b0       0x18 bin/obj/rslib.a(imx8mp_kernel-1a53598e06c50be6.imx8mp_kernel.241a9a11e0e6ae75-cgu.0.rcgu.o)
                0xffff8000402136b0                uart_rx_len
 .text.uart_rxbuf_pop
                0xffff8000402136c8       0x58 bin/obj/rslib.a(imx8mp_kernel-1a53598e06c50be6.imx8mp_kernel.241a9a11e0e6ae75-cgu.0.rcgu.o)
                0xffff8000402136c8                uart_rxbuf_pop
 .text.uart_rxbuf_push
                0xffff800040213720       0x6c bin/obj/rslib.a(imx8mp_kernel-1a53598e06c50be6.imx8mp_kernel.241a9a11e0e6ae75-cgu.0.rcgu.o)
                0xffff800040213720                uart_rxbuf_push
 .text.uart_tx_len
                0xffff80004021378c       0x18 bin/obj/rslib.a(imx8mp_kernel-1a53598e06c50be6.imx8mp_kernel.241a9a11e0e6ae75-cgu.0.rcgu.o)
                0xffff80004021378c                uart_tx_len
 .text.uart_txbuf_pop
                0xffff8000402137a4       0x68 bin/obj/rslib.a(imx8mp_kernel-1a53598e06c50be6.imx8mp_kernel.241a9a11e0e6ae75-cgu.0.rcgu.o)
                0xffff8000402137a4                uart_txbuf_pop
 .text.uart_txbuf_push
                0xffff80004021380c       0x60 bin/obj/rslib.a(imx8mp_kernel-1a53598e06c50be6.imx8mp_kernel.241a9a11e0e6ae75-cgu.0.rcgu.o)
                0xffff80004021380c                uart_txbuf_push
 .text          0xffff80004021386c        0x0 bin/obj/rslib.a(core-dca77d77b03929cc.core.bbd04c23a4fa3c72-cgu.0.rcgu.o)
 .text._ZN101_$LT$core..char..CaseMappingIter$u20$as$u20$core..iter..traits..double_ended..DoubleEndedIterator$GT$15advance_back_by17hf0d6f1ce58d3f07dE
                0xffff80004021386c       0x28 bin/obj/rslib.a(core-dca77d77b03929cc.core.bbd04c23a4fa3c72-cgu.0.rcgu.o)
                0xffff80004021386c                <core::char::CaseMappingIter as core::iter::traits::double_ended::DoubleEndedIterator>::advance_back_by
 .text._ZN101_$LT$core..char..CaseMappingIter$u20$as$u20$core..iter..traits..double_ended..DoubleEndedIterator$GT$9next_back17hc65cc64a3027a392E
                0xffff800040213894       0x28 bin/obj/rslib.a(core-dca77d77b03929cc.core.bbd04c23a4fa3c72-cgu.0.rcgu.o)
                0xffff800040213894                <core::char::CaseMappingIter as core::iter::traits::double_ended::DoubleEndedIterator>::next_back
 .text._ZN105_$LT$core..slice..ascii..EscapeAscii$u20$as$u20$core..iter..traits..double_ended..DoubleEndedIterator$GT$9next_back17h61446658ee893423E
                0xffff8000402138bc      0x120 bin/obj/rslib.a(core-dca77d77b03929cc.core.bbd04c23a4fa3c72-cgu.0.rcgu.o)
                0xffff8000402138bc                <core::slice::ascii::EscapeAscii as core::iter::traits::double_ended::DoubleEndedIterator>::next_back
 .text._ZN105_$LT$dyn$u20$core..any..Any$u2b$core..marker..Send$u2b$core..marker..Sync$u20$as$u20$core..fmt..Debug$GT$3fmt17hd0716b989b3da57dE
                0xffff8000402139dc       0x60 bin/obj/rslib.a(core-dca77d77b03929cc.core.bbd04c23a4fa3c72-cgu.0.rcgu.o)
                0xffff8000402139dc                <dyn core::any::Any as core::fmt::Debug>::fmt
                0xffff8000402139dc                <dyn core::any::Any+core::marker::Send as core::fmt::Debug>::fmt
                0xffff8000402139dc                <dyn core::any::Any+core::marker::Send+core::marker::Sync as core::fmt::Debug>::fmt
 .text._ZN110_$LT$$LT$core..wtf8..EncodeWide$u20$as$u20$core..fmt..Debug$GT$..fmt..CodeUnit$u20$as$u20$core..fmt..Debug$GT$3fmt17hda14d4f4daf3c5c9E
                0xffff800040213a3c       0xa0 bin/obj/rslib.a(core-dca77d77b03929cc.core.bbd04c23a4fa3c72-cgu.0.rcgu.o)
                0xffff800040213a3c                <<core::wtf8::EncodeWide as core::fmt::Debug>::fmt::CodeUnit as core::fmt::Debug>::fmt
 .text._ZN116_$LT$core..net..ip_addr..Ipv4Addr$u20$as$u20$core..ops..bit..BitOrAssign$LT$$RF$core..net..ip_addr..Ipv4Addr$GT$$GT$12bitor_assign17h2747ee25fbf1738bE
                0xffff800040213adc       0x80 bin/obj/rslib.a(core-dca77d77b03929cc.core.bbd04c23a4fa3c72-cgu.0.rcgu.o)
                0xffff800040213adc                <core::net::ip_addr::Ipv4Addr as core::ops::bit::BitOrAssign<&core::net::ip_addr::Ipv4Addr>>::bitor_assign
 .text._ZN116_$LT$core..net..ip_addr..Ipv6Addr$u20$as$u20$core..ops..bit..BitOrAssign$LT$$RF$core..net..ip_addr..Ipv6Addr$GT$$GT$12bitor_assign17hff885b6f68f5609cE
                0xffff800040213b5c      0x1d0 bin/obj/rslib.a(core-dca77d77b03929cc.core.bbd04c23a4fa3c72-cgu.0.rcgu.o)
                0xffff800040213b5c                <core::net::ip_addr::Ipv6Addr as core::ops::bit::BitOrAssign<&core::net::ip_addr::Ipv6Addr>>::bitor_assign
 .text._ZN117_$LT$core..net..ip_addr..Ipv4Addr$u20$as$u20$core..ops..bit..BitAndAssign$LT$$RF$core..net..ip_addr..Ipv4Addr$GT$$GT$13bitand_assign17hb3faa6ba9d6ecb06E
                0xffff800040213d2c       0x80 bin/obj/rslib.a(core-dca77d77b03929cc.core.bbd04c23a4fa3c72-cgu.0.rcgu.o)
                0xffff800040213d2c                <core::net::ip_addr::Ipv4Addr as core::ops::bit::BitAndAssign<&core::net::ip_addr::Ipv4Addr>>::bitand_assign
 .text._ZN117_$LT$core..net..ip_addr..Ipv6Addr$u20$as$u20$core..ops..bit..BitAndAssign$LT$$RF$core..net..ip_addr..Ipv6Addr$GT$$GT$13bitand_assign17hb1c67c235aa10d9dE
                0xffff800040213dac      0x1d0 bin/obj/rslib.a(core-dca77d77b03929cc.core.bbd04c23a4fa3c72-cgu.0.rcgu.o)
                0xffff800040213dac                <core::net::ip_addr::Ipv6Addr as core::ops::bit::BitAndAssign<&core::net::ip_addr::Ipv6Addr>>::bitand_assign
 .text._ZN40_$LT$str$u20$as$u20$core..fmt..Debug$GT$3fmt17h5f6f1bf3a0007201E
                0xffff800040213f7c      0x3b0 bin/obj/rslib.a(core-dca77d77b03929cc.core.bbd04c23a4fa3c72-cgu.0.rcgu.o)
                0xffff800040213f7c                <str as core::fmt::Debug>::fmt
 .text._ZN41_$LT$char$u20$as$u20$core..fmt..Debug$GT$3fmt17h05bf1d95c56e9d68E
                0xffff80004021432c       0xe4 bin/obj/rslib.a(core-dca77d77b03929cc.core.bbd04c23a4fa3c72-cgu.0.rcgu.o)
                0xffff80004021432c                <char as core::fmt::Debug>::fmt
 .text._ZN42_$LT$$RF$T$u20$as$u20$core..fmt..Debug$GT$3fmt17h2cdcb51347d218f7E
                0xffff800040214410        0x8 bin/obj/rslib.a(core-dca77d77b03929cc.core.bbd04c23a4fa3c72-cgu.0.rcgu.o)
 .text._ZN42_$LT$$RF$T$u20$as$u20$core..fmt..Debug$GT$3fmt17h479b8efc69ca8267E
                0xffff800040214418        0x8 bin/obj/rslib.a(core-dca77d77b03929cc.core.bbd04c23a4fa3c72-cgu.0.rcgu.o)
 .text._ZN42_$LT$$RF$T$u20$as$u20$core..fmt..Debug$GT$3fmt17h5583193454f8b8d6E
                0xffff800040214420      0x164 bin/obj/rslib.a(core-dca77d77b03929cc.core.bbd04c23a4fa3c72-cgu.0.rcgu.o)
 .text._ZN42_$LT$$RF$T$u20$as$u20$core..fmt..Debug$GT$3fmt17h56b7a391078316eaE
                0xffff800040214584        0xc bin/obj/rslib.a(core-dca77d77b03929cc.core.bbd04c23a4fa3c72-cgu.0.rcgu.o)
 .text._ZN42_$LT$$RF$T$u20$as$u20$core..fmt..Debug$GT$3fmt17h7040e3522c936441E
                0xffff800040214590        0xc bin/obj/rslib.a(core-dca77d77b03929cc.core.bbd04c23a4fa3c72-cgu.0.rcgu.o)
 .text._ZN42_$LT$$RF$T$u20$as$u20$core..fmt..Debug$GT$3fmt17h73d6b45e08bc8e15E
                0xffff80004021459c       0x14 bin/obj/rslib.a(core-dca77d77b03929cc.core.bbd04c23a4fa3c72-cgu.0.rcgu.o)
 .text._ZN42_$LT$$RF$T$u20$as$u20$core..fmt..Debug$GT$3fmt17ha642bfdd7996c379E
                0xffff8000402145b0       0x14 bin/obj/rslib.a(core-dca77d77b03929cc.core.bbd04c23a4fa3c72-cgu.0.rcgu.o)
 .text._ZN42_$LT$str$u20$as$u20$core..fmt..Display$GT$3fmt17hc0780a4df539a16aE
                0xffff8000402145c4       0x14 bin/obj/rslib.a(core-dca77d77b03929cc.core.bbd04c23a4fa3c72-cgu.0.rcgu.o)
                0xffff8000402145c4                <str as core::fmt::Display>::fmt
 .text._ZN43_$LT$bool$u20$as$u20$core..fmt..Display$GT$3fmt17h9806e9f5fa916ff1E
                0xffff8000402145d8       0x2c bin/obj/rslib.a(core-dca77d77b03929cc.core.bbd04c23a4fa3c72-cgu.0.rcgu.o)
                0xffff8000402145d8                <bool as core::fmt::Display>::fmt
 .text._ZN43_$LT$char$u20$as$u20$core..fmt..Display$GT$3fmt17h83f04f7b2308e64bE
                0xffff800040214604       0xf8 bin/obj/rslib.a(core-dca77d77b03929cc.core.bbd04c23a4fa3c72-cgu.0.rcgu.o)
                0xffff800040214604                <char as core::fmt::Display>::fmt
 .text._ZN44_$LT$$RF$T$u20$as$u20$core..fmt..Display$GT$3fmt17h703b070ad8b43283E
                0xffff8000402146fc        0x8 bin/obj/rslib.a(core-dca77d77b03929cc.core.bbd04c23a4fa3c72-cgu.0.rcgu.o)
 .text._ZN44_$LT$$RF$T$u20$as$u20$core..fmt..Display$GT$3fmt17h9bd2ce85ae1d3eddE
                0xffff800040214704      0x158 bin/obj/rslib.a(core-dca77d77b03929cc.core.bbd04c23a4fa3c72-cgu.0.rcgu.o)
 .text._ZN44_$LT$$RF$T$u20$as$u20$core..fmt..Display$GT$3fmt17hac20f0bb39cfdd9eE
                0xffff80004021485c       0x10 bin/obj/rslib.a(core-dca77d77b03929cc.core.bbd04c23a4fa3c72-cgu.0.rcgu.o)
 .text._ZN44_$LT$$RF$T$u20$as$u20$core..fmt..Display$GT$3fmt17hfec459358b2b0a7cE
                0xffff80004021486c        0x8 bin/obj/rslib.a(core-dca77d77b03929cc.core.bbd04c23a4fa3c72-cgu.0.rcgu.o)
 .text._ZN45_$LT$$RF$T$u20$as$u20$core..fmt..LowerHex$GT$3fmt17h05bd91b15c4ae0d9E
                0xffff800040214874       0x7c bin/obj/rslib.a(core-dca77d77b03929cc.core.bbd04c23a4fa3c72-cgu.0.rcgu.o)
 .text._ZN46_$LT$i8$u20$as$u20$core..pat..RangePattern$GT$7sub_one17h9a01a105c96fcbd5E
                0xffff8000402148f0       0x48 bin/obj/rslib.a(core-dca77d77b03929cc.core.bbd04c23a4fa3c72-cgu.0.rcgu.o)
                0xffff8000402148f0                <i8 as core::pat::RangePattern>::sub_one
 .text._ZN46_$LT$u8$u20$as$u20$core..pat..RangePattern$GT$7sub_one17h670240648e8e7fb4E
                0xffff800040214938       0x40 bin/obj/rslib.a(core-dca77d77b03929cc.core.bbd04c23a4fa3c72-cgu.0.rcgu.o)
                0xffff800040214938                <u8 as core::pat::RangePattern>::sub_one
 .text._ZN47_$LT$i16$u20$as$u20$core..pat..RangePattern$GT$7sub_one17h541e4bf249e12cddE
                0xffff800040214978       0x48 bin/obj/rslib.a(core-dca77d77b03929cc.core.bbd04c23a4fa3c72-cgu.0.rcgu.o)
                0xffff800040214978                <i16 as core::pat::RangePattern>::sub_one
 .text._ZN47_$LT$i32$u20$as$u20$core..pat..RangePattern$GT$7sub_one17h97b022b5d897e388E
                0xffff8000402149c0       0x3c bin/obj/rslib.a(core-dca77d77b03929cc.core.bbd04c23a4fa3c72-cgu.0.rcgu.o)
                0xffff8000402149c0                <i32 as core::pat::RangePattern>::sub_one
 .text._ZN47_$LT$i64$u20$as$u20$core..pat..RangePattern$GT$7sub_one17h0d4cbf88673eab66E
                0xffff8000402149fc       0x3c bin/obj/rslib.a(core-dca77d77b03929cc.core.bbd04c23a4fa3c72-cgu.0.rcgu.o)
                0xffff8000402149fc                <i64 as core::pat::RangePattern>::sub_one
                0xffff8000402149fc                <isize as core::pat::RangePattern>::sub_one
 .text._ZN47_$LT$u16$u20$as$u20$core..pat..RangePattern$GT$7sub_one17hf1b3147e5737ed06E
                0xffff800040214a38       0x40 bin/obj/rslib.a(core-dca77d77b03929cc.core.bbd04c23a4fa3c72-cgu.0.rcgu.o)
                0xffff800040214a38                <u16 as core::pat::RangePattern>::sub_one
 .text._ZN47_$LT$u32$u20$as$u20$core..pat..RangePattern$GT$7sub_one17h5f94339af8ab10a1E
                0xffff800040214a78       0x3c bin/obj/rslib.a(core-dca77d77b03929cc.core.bbd04c23a4fa3c72-cgu.0.rcgu.o)
                0xffff800040214a78                <u32 as core::pat::RangePattern>::sub_one
 .text._ZN47_$LT$u64$u20$as$u20$core..pat..RangePattern$GT$7sub_one17h24c018f405b1f310E
                0xffff800040214ab4       0x3c bin/obj/rslib.a(core-dca77d77b03929cc.core.bbd04c23a4fa3c72-cgu.0.rcgu.o)
                0xffff800040214ab4                <usize as core::pat::RangePattern>::sub_one
                0xffff800040214ab4                <u64 as core::pat::RangePattern>::sub_one
 .text._ZN48_$LT$char$u20$as$u20$core..pat..RangePattern$GT$7sub_one17he70177f83f7ceafcE
                0xffff800040214af0       0x54 bin/obj/rslib.a(core-dca77d77b03929cc.core.bbd04c23a4fa3c72-cgu.0.rcgu.o)
                0xffff800040214af0                <char as core::pat::RangePattern>::sub_one
 .text._ZN48_$LT$i128$u20$as$u20$core..pat..RangePattern$GT$7sub_one17hcbc11fca96f2cd53E
                0xffff800040214b44       0x4c bin/obj/rslib.a(core-dca77d77b03929cc.core.bbd04c23a4fa3c72-cgu.0.rcgu.o)
                0xffff800040214b44                <i128 as core::pat::RangePattern>::sub_one
 .text._ZN48_$LT$u128$u20$as$u20$core..pat..RangePattern$GT$7sub_one17h082c3491375e9509E
                0xffff800040214b90       0x4c bin/obj/rslib.a(core-dca77d77b03929cc.core.bbd04c23a4fa3c72-cgu.0.rcgu.o)
                0xffff800040214b90                <u128 as core::pat::RangePattern>::sub_one
 .text._ZN49_$LT$u8$u20$as$u20$core..num..bignum..FullOps$GT$12full_div_rem17h6fed2e224afbc72dE
                0xffff800040214bdc       0x38 bin/obj/rslib.a(core-dca77d77b03929cc.core.bbd04c23a4fa3c72-cgu.0.rcgu.o)
                0xffff800040214bdc                <u8 as core::num::bignum::FullOps>::full_div_rem
 .text.unlikely._ZN4core3f3221_$LT$impl$u20$f32$GT$5clamp8do_panic7runtime17h36a43f140f64d661E
                0xffff800040214c14       0x50 bin/obj/rslib.a(core-dca77d77b03929cc.core.bbd04c23a4fa3c72-cgu.0.rcgu.o)
                0xffff800040214c14                core::f32::<impl f32>::clamp::do_panic::runtime
 .text.unlikely._ZN4core3f6421_$LT$impl$u20$f64$GT$5clamp8do_panic7runtime17h94d48098c87e850eE
                0xffff800040214c64       0x50 bin/obj/rslib.a(core-dca77d77b03929cc.core.bbd04c23a4fa3c72-cgu.0.rcgu.o)
                0xffff800040214c64                core::f64::<impl f64>::clamp::do_panic::runtime
 .text._ZN4core3ffi5c_str4CStr19from_bytes_with_nul17hf7126ca100a56b9eE
                0xffff800040214cb4       0xf0 bin/obj/rslib.a(core-dca77d77b03929cc.core.bbd04c23a4fa3c72-cgu.0.rcgu.o)
                0xffff800040214cb4                core::ffi::c_str::CStr::from_bytes_with_nul
 .text._ZN4core3ffi5c_str4CStr20from_bytes_until_nul17h4a4d4ec068c826baE
                0xffff800040214da4       0xdc bin/obj/rslib.a(core-dca77d77b03929cc.core.bbd04c23a4fa3c72-cgu.0.rcgu.o)
                0xffff800040214da4                core::ffi::c_str::CStr::from_bytes_until_nul
 .text._ZN4core3ffi5c_str4CStr6to_str17hf906734cbe15885eE
                0xffff800040214e80        0x8 bin/obj/rslib.a(core-dca77d77b03929cc.core.bbd04c23a4fa3c72-cgu.0.rcgu.o)
                0xffff800040214e80                core::ffi::c_str::CStr::to_str
 .text._ZN4core3fmt17FormattingOptions8get_fill17he0043a57724473c7E
                0xffff800040214e88        0xc bin/obj/rslib.a(core-dca77d77b03929cc.core.bbd04c23a4fa3c72-cgu.0.rcgu.o)
                0xffff800040214e88                core::fmt::FormattingOptions::get_fill
 .text._ZN4core3fmt17pointer_fmt_inner17h9512fbe23d32d8a3E
                0xffff800040214e94       0xb8 bin/obj/rslib.a(core-dca77d77b03929cc.core.bbd04c23a4fa3c72-cgu.0.rcgu.o)
                0xffff800040214e94                core::fmt::pointer_fmt_inner
 .text._ZN4core3fmt3num22_$LT$impl$u20$i128$GT$11format_into17h7da8cadabd24f583E
                0xffff800040214f4c       0x74 bin/obj/rslib.a(core-dca77d77b03929cc.core.bbd04c23a4fa3c72-cgu.0.rcgu.o)
                0xffff800040214f4c                core::fmt::num::<impl i128>::format_into
 .text._ZN4core3fmt3num22_$LT$impl$u20$u128$GT$10_fmt_inner17hf030a7152409751aE
                0xffff800040214fc0      0x578 bin/obj/rslib.a(core-dca77d77b03929cc.core.bbd04c23a4fa3c72-cgu.0.rcgu.o)
 .text._ZN4core3fmt3num22_$LT$impl$u20$u128$GT$11format_into17h5dee2ace129fe29cE
                0xffff800040215538       0x34 bin/obj/rslib.a(core-dca77d77b03929cc.core.bbd04c23a4fa3c72-cgu.0.rcgu.o)
                0xffff800040215538                core::fmt::num::<impl u128>::format_into
 .text._ZN4core3fmt3num22_$LT$impl$u20$u128$GT$4_fmt17ha65d27b87d338669E
                0xffff80004021556c       0x2c bin/obj/rslib.a(core-dca77d77b03929cc.core.bbd04c23a4fa3c72-cgu.0.rcgu.o)
                0xffff80004021556c                core::fmt::num::<impl u128>::_fmt
 .text._ZN4core3fmt3num3imp20_$LT$impl$u20$i8$GT$11format_into17hfa6336419ff83042E
                0xffff800040215598      0x134 bin/obj/rslib.a(core-dca77d77b03929cc.core.bbd04c23a4fa3c72-cgu.0.rcgu.o)
                0xffff800040215598                core::fmt::num::imp::<impl i8>::format_into
 .text._ZN4core3fmt3num3imp20_$LT$impl$u20$u8$GT$11format_into17h879b7eff6dae2147E
                0xffff8000402156cc       0xa0 bin/obj/rslib.a(core-dca77d77b03929cc.core.bbd04c23a4fa3c72-cgu.0.rcgu.o)
                0xffff8000402156cc                core::fmt::num::imp::<impl u8>::format_into
 .text._ZN4core3fmt3num3imp20_$LT$impl$u20$u8$GT$4_fmt17ha676af9982528506E
                0xffff80004021576c       0x90 bin/obj/rslib.a(core-dca77d77b03929cc.core.bbd04c23a4fa3c72-cgu.0.rcgu.o)
                0xffff80004021576c                core::fmt::num::imp::<impl u8>::_fmt
 .text._ZN4core3fmt3num3imp21_$LT$impl$u20$i16$GT$11format_into17h2f71a14c8f3a6320E
                0xffff8000402157fc      0x1ec bin/obj/rslib.a(core-dca77d77b03929cc.core.bbd04c23a4fa3c72-cgu.0.rcgu.o)
                0xffff8000402157fc                core::fmt::num::imp::<impl i16>::format_into
 .text._ZN4core3fmt3num3imp21_$LT$impl$u20$i32$GT$11format_into17hbc98fbdd3b5c6d6eE
                0xffff8000402159e8      0x274 bin/obj/rslib.a(core-dca77d77b03929cc.core.bbd04c23a4fa3c72-cgu.0.rcgu.o)
                0xffff8000402159e8                core::fmt::num::imp::<impl i32>::format_into
 .text._ZN4core3fmt3num3imp21_$LT$impl$u20$i64$GT$11format_into17he56d1a706514badaE
                0xffff800040215c5c      0x27c bin/obj/rslib.a(core-dca77d77b03929cc.core.bbd04c23a4fa3c72-cgu.0.rcgu.o)
                0xffff800040215c5c                core::fmt::num::imp::<impl isize>::format_into
                0xffff800040215c5c                core::fmt::num::imp::<impl i64>::format_into
 .text._ZN4core3fmt3num3imp21_$LT$impl$u20$u16$GT$11format_into17hf5acce3bc060a7a4E
                0xffff800040215ed8       0xf8 bin/obj/rslib.a(core-dca77d77b03929cc.core.bbd04c23a4fa3c72-cgu.0.rcgu.o)
                0xffff800040215ed8                core::fmt::num::imp::<impl u16>::format_into
 .text._ZN4core3fmt3num3imp21_$LT$impl$u20$u16$GT$4_fmt17h9b16707f2c4d83c7E
                0xffff800040215fd0      0x108 bin/obj/rslib.a(core-dca77d77b03929cc.core.bbd04c23a4fa3c72-cgu.0.rcgu.o)
                0xffff800040215fd0                core::fmt::num::imp::<impl u16>::_fmt
 .text._ZN4core3fmt3num3imp21_$LT$impl$u20$u32$GT$11format_into17h699a29a216c381bfE
                0xffff8000402160d8      0x12c bin/obj/rslib.a(core-dca77d77b03929cc.core.bbd04c23a4fa3c72-cgu.0.rcgu.o)
                0xffff8000402160d8                core::fmt::num::imp::<impl u32>::format_into
 .text._ZN4core3fmt3num3imp21_$LT$impl$u20$u32$GT$4_fmt17hc5bdfc1c3dd3fd08E
                0xffff800040216204      0x130 bin/obj/rslib.a(core-dca77d77b03929cc.core.bbd04c23a4fa3c72-cgu.0.rcgu.o)
                0xffff800040216204                core::fmt::num::imp::<impl u32>::_fmt
 .text._ZN4core3fmt3num3imp21_$LT$impl$u20$u64$GT$11format_into17he2b4201a970f20d7E
                0xffff800040216334      0x130 bin/obj/rslib.a(core-dca77d77b03929cc.core.bbd04c23a4fa3c72-cgu.0.rcgu.o)
                0xffff800040216334                core::fmt::num::imp::<impl u64>::format_into
                0xffff800040216334                core::fmt::num::imp::<impl usize>::format_into
 .text._ZN4core3fmt3num3imp21_$LT$impl$u20$u64$GT$4_fmt17hf5cf8cc64887d18dE
                0xffff800040216464      0x134 bin/obj/rslib.a(core-dca77d77b03929cc.core.bbd04c23a4fa3c72-cgu.0.rcgu.o)
                0xffff800040216464                core::fmt::num::imp::<impl u64>::_fmt
                0xffff800040216464                core::fmt::num::imp::<impl usize>::_fmt
 .text._ZN4core3fmt3num3imp51_$LT$impl$u20$core..fmt..Display$u20$for$u20$i8$GT$3fmt17hcb39de988782ba27E
                0xffff800040216598       0xcc bin/obj/rslib.a(core-dca77d77b03929cc.core.bbd04c23a4fa3c72-cgu.0.rcgu.o)
                0xffff800040216598                core::fmt::num::imp::<impl core::fmt::Display for i8>::fmt
 .text._ZN4core3fmt3num3imp51_$LT$impl$u20$core..fmt..Display$u20$for$u20$u8$GT$3fmt17hf7d8c920e29b5333E
                0xffff800040216664       0xac bin/obj/rslib.a(core-dca77d77b03929cc.core.bbd04c23a4fa3c72-cgu.0.rcgu.o)
                0xffff800040216664                core::fmt::num::imp::<impl core::fmt::Display for u8>::fmt
 .text._ZN4core3fmt3num3imp52_$LT$impl$u20$core..fmt..Display$u20$for$u20$i16$GT$3fmt17h104a3911dccd2ff7E
                0xffff800040216710      0x11c bin/obj/rslib.a(core-dca77d77b03929cc.core.bbd04c23a4fa3c72-cgu.0.rcgu.o)
                0xffff800040216710                core::fmt::num::imp::<impl core::fmt::Display for i16>::fmt
 .text._ZN4core3fmt3num3imp52_$LT$impl$u20$core..fmt..Display$u20$for$u20$i32$GT$3fmt17h80bd409755b2ddaeE
                0xffff80004021682c      0x158 bin/obj/rslib.a(core-dca77d77b03929cc.core.bbd04c23a4fa3c72-cgu.0.rcgu.o)
                0xffff80004021682c                core::fmt::num::imp::<impl core::fmt::Display for i32>::fmt
 .text._ZN4core3fmt3num3imp52_$LT$impl$u20$core..fmt..Display$u20$for$u20$i64$GT$3fmt17h1e801d532e5ecaafE
                0xffff800040216984      0x15c bin/obj/rslib.a(core-dca77d77b03929cc.core.bbd04c23a4fa3c72-cgu.0.rcgu.o)
                0xffff800040216984                core::fmt::num::imp::<impl core::fmt::Display for isize>::fmt
                0xffff800040216984                core::fmt::num::imp::<impl core::fmt::Display for i64>::fmt
 .text._ZN4core3fmt3num3imp52_$LT$impl$u20$core..fmt..Display$u20$for$u20$u16$GT$3fmt17hdb2998ab968581d1E
                0xffff800040216ae0      0x104 bin/obj/rslib.a(core-dca77d77b03929cc.core.bbd04c23a4fa3c72-cgu.0.rcgu.o)
                0xffff800040216ae0                core::fmt::num::imp::<impl core::fmt::Display for u16>::fmt
 .text._ZN4core3fmt3num3imp52_$LT$impl$u20$core..fmt..Display$u20$for$u20$u32$GT$3fmt17h0b158e54c199f5dbE
                0xffff800040216be4      0x14c bin/obj/rslib.a(core-dca77d77b03929cc.core.bbd04c23a4fa3c72-cgu.0.rcgu.o)
                0xffff800040216be4                core::fmt::num::imp::<impl core::fmt::Display for u32>::fmt
 .text._ZN4core3fmt3num3imp52_$LT$impl$u20$core..fmt..Display$u20$for$u20$u64$GT$3fmt17h64f3911dafa6269fE
                0xffff800040216d30      0x154 bin/obj/rslib.a(core-dca77d77b03929cc.core.bbd04c23a4fa3c72-cgu.0.rcgu.o)
                0xffff800040216d30                core::fmt::num::imp::<impl core::fmt::Display for usize>::fmt
                0xffff800040216d30                core::fmt::num::imp::<impl core::fmt::Display for u64>::fmt
 .text._ZN4core3fmt3num3imp52_$LT$impl$u20$core..fmt..LowerExp$u20$for$u20$i8$GT$3fmt17h58d82f5837eb5be0E
                0xffff800040216e84       0x24 bin/obj/rslib.a(core-dca77d77b03929cc.core.bbd04c23a4fa3c72-cgu.0.rcgu.o)
                0xffff800040216e84                core::fmt::num::imp::<impl core::fmt::LowerExp for i8>::fmt
 .text._ZN4core3fmt3num3imp52_$LT$impl$u20$core..fmt..LowerExp$u20$for$u20$u8$GT$3fmt17h501ecc2dbdd34467E
                0xffff800040216ea8       0x18 bin/obj/rslib.a(core-dca77d77b03929cc.core.bbd04c23a4fa3c72-cgu.0.rcgu.o)
                0xffff800040216ea8                core::fmt::num::imp::<impl core::fmt::LowerExp for u8>::fmt
 .text._ZN4core3fmt3num3imp52_$LT$impl$u20$core..fmt..UpperExp$u20$for$u20$i8$GT$3fmt17ha0f846b22050294aE
                0xffff800040216ec0       0x24 bin/obj/rslib.a(core-dca77d77b03929cc.core.bbd04c23a4fa3c72-cgu.0.rcgu.o)
                0xffff800040216ec0                core::fmt::num::imp::<impl core::fmt::UpperExp for i8>::fmt
 .text._ZN4core3fmt3num3imp52_$LT$impl$u20$core..fmt..UpperExp$u20$for$u20$u8$GT$3fmt17h010e9c1ce5bc6f83E
                0xffff800040216ee4       0x18 bin/obj/rslib.a(core-dca77d77b03929cc.core.bbd04c23a4fa3c72-cgu.0.rcgu.o)
                0xffff800040216ee4                core::fmt::num::imp::<impl core::fmt::UpperExp for u8>::fmt
 .text._ZN4core3fmt3num3imp53_$LT$impl$u20$core..fmt..LowerExp$u20$for$u20$i16$GT$3fmt17h0ef11d9cfa7db045E
                0xffff800040216efc       0x24 bin/obj/rslib.a(core-dca77d77b03929cc.core.bbd04c23a4fa3c72-cgu.0.rcgu.o)
                0xffff800040216efc                core::fmt::num::imp::<impl core::fmt::LowerExp for i16>::fmt
 .text._ZN4core3fmt3num3imp53_$LT$impl$u20$core..fmt..LowerExp$u20$for$u20$i32$GT$3fmt17h73a92d63361655e1E
                0xffff800040216f20       0x24 bin/obj/rslib.a(core-dca77d77b03929cc.core.bbd04c23a4fa3c72-cgu.0.rcgu.o)
                0xffff800040216f20                core::fmt::num::imp::<impl core::fmt::LowerExp for i32>::fmt
 .text._ZN4core3fmt3num3imp53_$LT$impl$u20$core..fmt..LowerExp$u20$for$u20$i64$GT$3fmt17he8eaeb98c7470710E
                0xffff800040216f44       0x24 bin/obj/rslib.a(core-dca77d77b03929cc.core.bbd04c23a4fa3c72-cgu.0.rcgu.o)
                0xffff800040216f44                core::fmt::num::imp::<impl core::fmt::LowerExp for isize>::fmt
                0xffff800040216f44                core::fmt::num::imp::<impl core::fmt::LowerExp for i64>::fmt
 .text._ZN4core3fmt3num3imp53_$LT$impl$u20$core..fmt..LowerExp$u20$for$u20$u16$GT$3fmt17h49c4e818814d45dbE
                0xffff800040216f68       0x18 bin/obj/rslib.a(core-dca77d77b03929cc.core.bbd04c23a4fa3c72-cgu.0.rcgu.o)
                0xffff800040216f68                core::fmt::num::imp::<impl core::fmt::LowerExp for u16>::fmt
 .text._ZN4core3fmt3num3imp53_$LT$impl$u20$core..fmt..LowerExp$u20$for$u20$u32$GT$3fmt17h158f35b2865c949eE
                0xffff800040216f80       0x18 bin/obj/rslib.a(core-dca77d77b03929cc.core.bbd04c23a4fa3c72-cgu.0.rcgu.o)
                0xffff800040216f80                core::fmt::num::imp::<impl core::fmt::LowerExp for u32>::fmt
 .text._ZN4core3fmt3num3imp53_$LT$impl$u20$core..fmt..LowerExp$u20$for$u20$u64$GT$3fmt17hd02b9c2dab05dc10E
                0xffff800040216f98       0x18 bin/obj/rslib.a(core-dca77d77b03929cc.core.bbd04c23a4fa3c72-cgu.0.rcgu.o)
                0xffff800040216f98                core::fmt::num::imp::<impl core::fmt::LowerExp for usize>::fmt
                0xffff800040216f98                core::fmt::num::imp::<impl core::fmt::LowerExp for u64>::fmt
 .text._ZN4core3fmt3num3imp53_$LT$impl$u20$core..fmt..UpperExp$u20$for$u20$i16$GT$3fmt17h3fab035472132d68E
                0xffff800040216fb0       0x24 bin/obj/rslib.a(core-dca77d77b03929cc.core.bbd04c23a4fa3c72-cgu.0.rcgu.o)
                0xffff800040216fb0                core::fmt::num::imp::<impl core::fmt::UpperExp for i16>::fmt
 .text._ZN4core3fmt3num3imp53_$LT$impl$u20$core..fmt..UpperExp$u20$for$u20$i32$GT$3fmt17hc873c09afcd74914E
                0xffff800040216fd4       0x24 bin/obj/rslib.a(core-dca77d77b03929cc.core.bbd04c23a4fa3c72-cgu.0.rcgu.o)
                0xffff800040216fd4                core::fmt::num::imp::<impl core::fmt::UpperExp for i32>::fmt
 .text._ZN4core3fmt3num3imp53_$LT$impl$u20$core..fmt..UpperExp$u20$for$u20$i64$GT$3fmt17he2f6e251da279662E
                0xffff800040216ff8       0x24 bin/obj/rslib.a(core-dca77d77b03929cc.core.bbd04c23a4fa3c72-cgu.0.rcgu.o)
                0xffff800040216ff8                core::fmt::num::imp::<impl core::fmt::UpperExp for isize>::fmt
                0xffff800040216ff8                core::fmt::num::imp::<impl core::fmt::UpperExp for i64>::fmt
 .text._ZN4core3fmt3num3imp53_$LT$impl$u20$core..fmt..UpperExp$u20$for$u20$u16$GT$3fmt17h2e49b62056d088d3E
                0xffff80004021701c       0x18 bin/obj/rslib.a(core-dca77d77b03929cc.core.bbd04c23a4fa3c72-cgu.0.rcgu.o)
                0xffff80004021701c                core::fmt::num::imp::<impl core::fmt::UpperExp for u16>::fmt
 .text._ZN4core3fmt3num3imp53_$LT$impl$u20$core..fmt..UpperExp$u20$for$u20$u32$GT$3fmt17h67f329f6a561b042E
                0xffff800040217034       0x18 bin/obj/rslib.a(core-dca77d77b03929cc.core.bbd04c23a4fa3c72-cgu.0.rcgu.o)
                0xffff800040217034                core::fmt::num::imp::<impl core::fmt::UpperExp for u32>::fmt
 .text._ZN4core3fmt3num3imp53_$LT$impl$u20$core..fmt..UpperExp$u20$for$u20$u64$GT$3fmt17h089d5041d0086602E
                0xffff80004021704c       0x18 bin/obj/rslib.a(core-dca77d77b03929cc.core.bbd04c23a4fa3c72-cgu.0.rcgu.o)
                0xffff80004021704c                core::fmt::num::imp::<impl core::fmt::UpperExp for usize>::fmt
                0xffff80004021704c                core::fmt::num::imp::<impl core::fmt::UpperExp for u64>::fmt
 .text._ZN4core3fmt3num3imp7exp_u6417hcfe3e43662793de3E
                0xffff800040217064      0x540 bin/obj/rslib.a(core-dca77d77b03929cc.core.bbd04c23a4fa3c72-cgu.0.rcgu.o)
 .text._ZN4core3fmt3num49_$LT$impl$u20$core..fmt..Debug$u20$for$u20$i8$GT$3fmt17h827ef15b7c2cc75eE
                0xffff8000402175a4      0x18c bin/obj/rslib.a(core-dca77d77b03929cc.core.bbd04c23a4fa3c72-cgu.0.rcgu.o)
 .text._ZN4core3fmt3num49_$LT$impl$u20$core..fmt..Debug$u20$for$u20$u8$GT$3fmt17hbfcfc52b811f831eE
                0xffff800040217730      0x170 bin/obj/rslib.a(core-dca77d77b03929cc.core.bbd04c23a4fa3c72-cgu.0.rcgu.o)
 .text._ZN4core3fmt3num49_$LT$impl$u20$core..fmt..Octal$u20$for$u20$i8$GT$3fmt17h938552005bb66eb0E
                0xffff8000402178a0       0x78 bin/obj/rslib.a(core-dca77d77b03929cc.core.bbd04c23a4fa3c72-cgu.0.rcgu.o)
                0xffff8000402178a0                core::fmt::num::<impl core::fmt::Octal for i8>::fmt
 .text._ZN4core3fmt3num49_$LT$impl$u20$core..fmt..Octal$u20$for$u20$u8$GT$3fmt17hf4ab8ae14edcc341E
                0xffff800040217918       0x78 bin/obj/rslib.a(core-dca77d77b03929cc.core.bbd04c23a4fa3c72-cgu.0.rcgu.o)
                0xffff800040217918                core::fmt::num::<impl core::fmt::Octal for u8>::fmt
 .text._ZN4core3fmt3num50_$LT$impl$u20$core..fmt..Binary$u20$for$u20$i8$GT$3fmt17h364fc7cada5f95ebE
                0xffff800040217990       0x78 bin/obj/rslib.a(core-dca77d77b03929cc.core.bbd04c23a4fa3c72-cgu.0.rcgu.o)
                0xffff800040217990                core::fmt::num::<impl core::fmt::Binary for i8>::fmt
 .text._ZN4core3fmt3num50_$LT$impl$u20$core..fmt..Binary$u20$for$u20$u8$GT$3fmt17he2c0567fc6506356E
                0xffff800040217a08       0x78 bin/obj/rslib.a(core-dca77d77b03929cc.core.bbd04c23a4fa3c72-cgu.0.rcgu.o)
                0xffff800040217a08                core::fmt::num::<impl core::fmt::Binary for u8>::fmt
 .text._ZN4core3fmt3num50_$LT$impl$u20$core..fmt..Debug$u20$for$u20$i16$GT$3fmt17hd85915d27365f48cE
                0xffff800040217a80      0x1dc bin/obj/rslib.a(core-dca77d77b03929cc.core.bbd04c23a4fa3c72-cgu.0.rcgu.o)
 .text._ZN4core3fmt3num50_$LT$impl$u20$core..fmt..Debug$u20$for$u20$u16$GT$3fmt17h02c79a3af51ec021E
                0xffff800040217c5c      0x1c8 bin/obj/rslib.a(core-dca77d77b03929cc.core.bbd04c23a4fa3c72-cgu.0.rcgu.o)
 .text._ZN4core3fmt3num50_$LT$impl$u20$core..fmt..Debug$u20$for$u20$u32$GT$3fmt17hdcaa54ae5b814f37E
                0xffff800040217e24      0x200 bin/obj/rslib.a(core-dca77d77b03929cc.core.bbd04c23a4fa3c72-cgu.0.rcgu.o)
 .text._ZN4core3fmt3num50_$LT$impl$u20$core..fmt..Debug$u20$for$u20$u64$GT$3fmt17h6612a6d4aeffcfe3E
                0xffff800040218024      0x1fc bin/obj/rslib.a(core-dca77d77b03929cc.core.bbd04c23a4fa3c72-cgu.0.rcgu.o)
 .text._ZN4core3fmt3num50_$LT$impl$u20$core..fmt..Octal$u20$for$u20$i16$GT$3fmt17hb30f0eff41b795d7E
                0xffff800040218220       0x78 bin/obj/rslib.a(core-dca77d77b03929cc.core.bbd04c23a4fa3c72-cgu.0.rcgu.o)
                0xffff800040218220                core::fmt::num::<impl core::fmt::Octal for i16>::fmt
 .text._ZN4core3fmt3num50_$LT$impl$u20$core..fmt..Octal$u20$for$u20$i32$GT$3fmt17h96bda70b13d869cfE
                0xffff800040218298       0x78 bin/obj/rslib.a(core-dca77d77b03929cc.core.bbd04c23a4fa3c72-cgu.0.rcgu.o)
                0xffff800040218298                core::fmt::num::<impl core::fmt::Octal for i32>::fmt
 .text._ZN4core3fmt3num50_$LT$impl$u20$core..fmt..Octal$u20$for$u20$i64$GT$3fmt17hbca0bdf49b956695E
                0xffff800040218310       0x78 bin/obj/rslib.a(core-dca77d77b03929cc.core.bbd04c23a4fa3c72-cgu.0.rcgu.o)
                0xffff800040218310                core::fmt::num::<impl core::fmt::Octal for i64>::fmt
                0xffff800040218310                core::fmt::num::<impl core::fmt::Octal for isize>::fmt
 .text._ZN4core3fmt3num50_$LT$impl$u20$core..fmt..Octal$u20$for$u20$u16$GT$3fmt17haa5505935580f60eE
                0xffff800040218388       0x78 bin/obj/rslib.a(core-dca77d77b03929cc.core.bbd04c23a4fa3c72-cgu.0.rcgu.o)
                0xffff800040218388                core::fmt::num::<impl core::fmt::Octal for u16>::fmt
 .text._ZN4core3fmt3num50_$LT$impl$u20$core..fmt..Octal$u20$for$u20$u32$GT$3fmt17h4a01e2886ae035d3E
                0xffff800040218400       0x78 bin/obj/rslib.a(core-dca77d77b03929cc.core.bbd04c23a4fa3c72-cgu.0.rcgu.o)
                0xffff800040218400                core::fmt::num::<impl core::fmt::Octal for u32>::fmt
 .text._ZN4core3fmt3num50_$LT$impl$u20$core..fmt..Octal$u20$for$u20$u64$GT$3fmt17hf6bc247530776172E
                0xffff800040218478       0x78 bin/obj/rslib.a(core-dca77d77b03929cc.core.bbd04c23a4fa3c72-cgu.0.rcgu.o)
                0xffff800040218478                core::fmt::num::<impl core::fmt::Octal for usize>::fmt
                0xffff800040218478                core::fmt::num::<impl core::fmt::Octal for u64>::fmt
 .text._ZN4core3fmt3num51_$LT$impl$u20$core..fmt..Binary$u20$for$u20$i16$GT$3fmt17h57858060feef142cE
                0xffff8000402184f0       0x78 bin/obj/rslib.a(core-dca77d77b03929cc.core.bbd04c23a4fa3c72-cgu.0.rcgu.o)
                0xffff8000402184f0                core::fmt::num::<impl core::fmt::Binary for i16>::fmt
 .text._ZN4core3fmt3num51_$LT$impl$u20$core..fmt..Binary$u20$for$u20$i32$GT$3fmt17h0b19d692da06108dE
                0xffff800040218568       0x78 bin/obj/rslib.a(core-dca77d77b03929cc.core.bbd04c23a4fa3c72-cgu.0.rcgu.o)
                0xffff800040218568                core::fmt::num::<impl core::fmt::Binary for i32>::fmt
 .text._ZN4core3fmt3num51_$LT$impl$u20$core..fmt..Binary$u20$for$u20$i64$GT$3fmt17haeba80af4dc4e17eE
                0xffff8000402185e0       0x78 bin/obj/rslib.a(core-dca77d77b03929cc.core.bbd04c23a4fa3c72-cgu.0.rcgu.o)
                0xffff8000402185e0                core::fmt::num::<impl core::fmt::Binary for isize>::fmt
                0xffff8000402185e0                core::fmt::num::<impl core::fmt::Binary for i64>::fmt
 .text._ZN4core3fmt3num51_$LT$impl$u20$core..fmt..Binary$u20$for$u20$u16$GT$3fmt17h994032199faeaac8E
                0xffff800040218658       0x78 bin/obj/rslib.a(core-dca77d77b03929cc.core.bbd04c23a4fa3c72-cgu.0.rcgu.o)
                0xffff800040218658                core::fmt::num::<impl core::fmt::Binary for u16>::fmt
 .text._ZN4core3fmt3num51_$LT$impl$u20$core..fmt..Binary$u20$for$u20$u32$GT$3fmt17h97ec4d142d6b0a75E
                0xffff8000402186d0       0x78 bin/obj/rslib.a(core-dca77d77b03929cc.core.bbd04c23a4fa3c72-cgu.0.rcgu.o)
                0xffff8000402186d0                core::fmt::num::<impl core::fmt::Binary for u32>::fmt
 .text._ZN4core3fmt3num51_$LT$impl$u20$core..fmt..Binary$u20$for$u20$u64$GT$3fmt17h88494fdefc0ff8d9E
                0xffff800040218748       0x78 bin/obj/rslib.a(core-dca77d77b03929cc.core.bbd04c23a4fa3c72-cgu.0.rcgu.o)
                0xffff800040218748                core::fmt::num::<impl core::fmt::Binary for u64>::fmt
                0xffff800040218748                core::fmt::num::<impl core::fmt::Binary for usize>::fmt
 .text._ZN4core3fmt3num51_$LT$impl$u20$core..fmt..Debug$u20$for$u20$i128$GT$3fmt17h02f9e17982837adcE
                0xffff8000402187c0      0x148 bin/obj/rslib.a(core-dca77d77b03929cc.core.bbd04c23a4fa3c72-cgu.0.rcgu.o)
 .text._ZN4core3fmt3num51_$LT$impl$u20$core..fmt..Debug$u20$for$u20$u128$GT$3fmt17hacbd24b09e2e612dE
                0xffff800040218908      0x128 bin/obj/rslib.a(core-dca77d77b03929cc.core.bbd04c23a4fa3c72-cgu.0.rcgu.o)
 .text._ZN4core3fmt3num51_$LT$impl$u20$core..fmt..Octal$u20$for$u20$i128$GT$3fmt17h30a46ebffb686345E
                0xffff800040218a30       0x84 bin/obj/rslib.a(core-dca77d77b03929cc.core.bbd04c23a4fa3c72-cgu.0.rcgu.o)
                0xffff800040218a30                core::fmt::num::<impl core::fmt::Octal for i128>::fmt
 .text._ZN4core3fmt3num51_$LT$impl$u20$core..fmt..Octal$u20$for$u20$u128$GT$3fmt17he9c20ead1f4ddb45E
                0xffff800040218ab4       0x84 bin/obj/rslib.a(core-dca77d77b03929cc.core.bbd04c23a4fa3c72-cgu.0.rcgu.o)
                0xffff800040218ab4                core::fmt::num::<impl core::fmt::Octal for u128>::fmt
 .text._ZN4core3fmt3num52_$LT$impl$u20$core..fmt..Binary$u20$for$u20$i128$GT$3fmt17h5ddc35715bb3478dE
                0xffff800040218b38       0x84 bin/obj/rslib.a(core-dca77d77b03929cc.core.bbd04c23a4fa3c72-cgu.0.rcgu.o)
                0xffff800040218b38                core::fmt::num::<impl core::fmt::Binary for i128>::fmt
 .text._ZN4core3fmt3num52_$LT$impl$u20$core..fmt..Binary$u20$for$u20$u128$GT$3fmt17h7c0ba53f984ef09eE
                0xffff800040218bbc       0x84 bin/obj/rslib.a(core-dca77d77b03929cc.core.bbd04c23a4fa3c72-cgu.0.rcgu.o)
                0xffff800040218bbc                core::fmt::num::<impl core::fmt::Binary for u128>::fmt
 .text._ZN4core3fmt3num52_$LT$impl$u20$core..fmt..Debug$u20$for$u20$usize$GT$3fmt17h43b30080ace008ecE
                0xffff800040218c40      0x208 bin/obj/rslib.a(core-dca77d77b03929cc.core.bbd04c23a4fa3c72-cgu.0.rcgu.o)
 .text._ZN4core3fmt3num52_$LT$impl$u20$core..fmt..LowerHex$u20$for$u20$i8$GT$3fmt17hf695129635c083b3E
                0xffff800040218e48       0x78 bin/obj/rslib.a(core-dca77d77b03929cc.core.bbd04c23a4fa3c72-cgu.0.rcgu.o)
                0xffff800040218e48                core::fmt::num::<impl core::fmt::LowerHex for i8>::fmt
 .text._ZN4core3fmt3num52_$LT$impl$u20$core..fmt..LowerHex$u20$for$u20$u8$GT$3fmt17h41223f6c79c82479E
                0xffff800040218ec0       0x78 bin/obj/rslib.a(core-dca77d77b03929cc.core.bbd04c23a4fa3c72-cgu.0.rcgu.o)
                0xffff800040218ec0                core::fmt::num::<impl core::fmt::LowerHex for u8>::fmt
 .text._ZN4core3fmt3num52_$LT$impl$u20$core..fmt..UpperHex$u20$for$u20$i8$GT$3fmt17h407840cf8f4701b9E
                0xffff800040218f38       0x78 bin/obj/rslib.a(core-dca77d77b03929cc.core.bbd04c23a4fa3c72-cgu.0.rcgu.o)
                0xffff800040218f38                core::fmt::num::<impl core::fmt::UpperHex for i8>::fmt
 .text._ZN4core3fmt3num52_$LT$impl$u20$core..fmt..UpperHex$u20$for$u20$u8$GT$3fmt17h1c056f3c85dae395E
                0xffff800040218fb0       0x78 bin/obj/rslib.a(core-dca77d77b03929cc.core.bbd04c23a4fa3c72-cgu.0.rcgu.o)
                0xffff800040218fb0                core::fmt::num::<impl core::fmt::UpperHex for u8>::fmt
 .text._ZN4core3fmt3num53_$LT$impl$u20$core..fmt..Display$u20$for$u20$i128$GT$3fmt17h143e7e69baa593e3E
                0xffff800040219028       0x78 bin/obj/rslib.a(core-dca77d77b03929cc.core.bbd04c23a4fa3c72-cgu.0.rcgu.o)
                0xffff800040219028                core::fmt::num::<impl core::fmt::Display for i128>::fmt
 .text._ZN4core3fmt3num53_$LT$impl$u20$core..fmt..Display$u20$for$u20$u128$GT$3fmt17h93d3e8374317a9ebE
                0xffff8000402190a0       0x64 bin/obj/rslib.a(core-dca77d77b03929cc.core.bbd04c23a4fa3c72-cgu.0.rcgu.o)
                0xffff8000402190a0                core::fmt::num::<impl core::fmt::Display for u128>::fmt
 .text._ZN4core3fmt3num53_$LT$impl$u20$core..fmt..LowerHex$u20$for$u20$i16$GT$3fmt17h5b03a43fe071e9d2E
                0xffff800040219104       0x78 bin/obj/rslib.a(core-dca77d77b03929cc.core.bbd04c23a4fa3c72-cgu.0.rcgu.o)
                0xffff800040219104                core::fmt::num::<impl core::fmt::LowerHex for i16>::fmt
 .text._ZN4core3fmt3num53_$LT$impl$u20$core..fmt..LowerHex$u20$for$u20$i32$GT$3fmt17hc95ab94a833a1d52E
                0xffff80004021917c       0x78 bin/obj/rslib.a(core-dca77d77b03929cc.core.bbd04c23a4fa3c72-cgu.0.rcgu.o)
                0xffff80004021917c                core::fmt::num::<impl core::fmt::LowerHex for i32>::fmt
 .text._ZN4core3fmt3num53_$LT$impl$u20$core..fmt..LowerHex$u20$for$u20$i64$GT$3fmt17h78bab8b90a4593cfE
                0xffff8000402191f4       0x78 bin/obj/rslib.a(core-dca77d77b03929cc.core.bbd04c23a4fa3c72-cgu.0.rcgu.o)
                0xffff8000402191f4                core::fmt::num::<impl core::fmt::LowerHex for i64>::fmt
                0xffff8000402191f4                core::fmt::num::<impl core::fmt::LowerHex for isize>::fmt
 .text._ZN4core3fmt3num53_$LT$impl$u20$core..fmt..LowerHex$u20$for$u20$u16$GT$3fmt17h763f8ccc440b53a1E
                0xffff80004021926c       0x78 bin/obj/rslib.a(core-dca77d77b03929cc.core.bbd04c23a4fa3c72-cgu.0.rcgu.o)
                0xffff80004021926c                core::fmt::num::<impl core::fmt::LowerHex for u16>::fmt
 .text._ZN4core3fmt3num53_$LT$impl$u20$core..fmt..LowerHex$u20$for$u20$u32$GT$3fmt17h549c5dc88a23e071E
                0xffff8000402192e4       0x78 bin/obj/rslib.a(core-dca77d77b03929cc.core.bbd04c23a4fa3c72-cgu.0.rcgu.o)
                0xffff8000402192e4                core::fmt::num::<impl core::fmt::LowerHex for u32>::fmt
 .text._ZN4core3fmt3num53_$LT$impl$u20$core..fmt..LowerHex$u20$for$u20$u64$GT$3fmt17hdaccb1a7b83ad970E
                0xffff80004021935c       0x78 bin/obj/rslib.a(core-dca77d77b03929cc.core.bbd04c23a4fa3c72-cgu.0.rcgu.o)
                0xffff80004021935c                core::fmt::num::<impl core::fmt::LowerHex for usize>::fmt
                0xffff80004021935c                core::fmt::num::<impl core::fmt::LowerHex for u64>::fmt
 .text._ZN4core3fmt3num53_$LT$impl$u20$core..fmt..UpperHex$u20$for$u20$i16$GT$3fmt17hdc971805de989b2aE
                0xffff8000402193d4       0x78 bin/obj/rslib.a(core-dca77d77b03929cc.core.bbd04c23a4fa3c72-cgu.0.rcgu.o)
                0xffff8000402193d4                core::fmt::num::<impl core::fmt::UpperHex for i16>::fmt
 .text._ZN4core3fmt3num53_$LT$impl$u20$core..fmt..UpperHex$u20$for$u20$i32$GT$3fmt17h7f105a3b4f757369E
                0xffff80004021944c       0x78 bin/obj/rslib.a(core-dca77d77b03929cc.core.bbd04c23a4fa3c72-cgu.0.rcgu.o)
                0xffff80004021944c                core::fmt::num::<impl core::fmt::UpperHex for i32>::fmt
 .text._ZN4core3fmt3num53_$LT$impl$u20$core..fmt..UpperHex$u20$for$u20$i64$GT$3fmt17h9e197d4c17bda1a5E
                0xffff8000402194c4       0x78 bin/obj/rslib.a(core-dca77d77b03929cc.core.bbd04c23a4fa3c72-cgu.0.rcgu.o)
                0xffff8000402194c4                core::fmt::num::<impl core::fmt::UpperHex for isize>::fmt
                0xffff8000402194c4                core::fmt::num::<impl core::fmt::UpperHex for i64>::fmt
 .text._ZN4core3fmt3num53_$LT$impl$u20$core..fmt..UpperHex$u20$for$u20$u16$GT$3fmt17h4d373f4e1b192db5E
                0xffff80004021953c       0x78 bin/obj/rslib.a(core-dca77d77b03929cc.core.bbd04c23a4fa3c72-cgu.0.rcgu.o)
                0xffff80004021953c                core::fmt::num::<impl core::fmt::UpperHex for u16>::fmt
 .text._ZN4core3fmt3num53_$LT$impl$u20$core..fmt..UpperHex$u20$for$u20$u32$GT$3fmt17hfe57b8c17b9bbf1aE
                0xffff8000402195b4       0x78 bin/obj/rslib.a(core-dca77d77b03929cc.core.bbd04c23a4fa3c72-cgu.0.rcgu.o)
                0xffff8000402195b4                core::fmt::num::<impl core::fmt::UpperHex for u32>::fmt
 .text._ZN4core3fmt3num53_$LT$impl$u20$core..fmt..UpperHex$u20$for$u20$u64$GT$3fmt17h995153f9b3a5bfe9E
                0xffff80004021962c       0x78 bin/obj/rslib.a(core-dca77d77b03929cc.core.bbd04c23a4fa3c72-cgu.0.rcgu.o)
                0xffff80004021962c                core::fmt::num::<impl core::fmt::UpperHex for usize>::fmt
                0xffff80004021962c                core::fmt::num::<impl core::fmt::UpperHex for u64>::fmt
 .text._ZN4core3fmt3num54_$LT$impl$u20$core..fmt..LowerExp$u20$for$u20$i128$GT$3fmt17h30434f360a41b4c4E
                0xffff8000402196a4       0x2c bin/obj/rslib.a(core-dca77d77b03929cc.core.bbd04c23a4fa3c72-cgu.0.rcgu.o)
                0xffff8000402196a4                core::fmt::num::<impl core::fmt::LowerExp for i128>::fmt
 .text._ZN4core3fmt3num54_$LT$impl$u20$core..fmt..LowerExp$u20$for$u20$u128$GT$3fmt17ha11197f8c52dd830E
                0xffff8000402196d0       0x14 bin/obj/rslib.a(core-dca77d77b03929cc.core.bbd04c23a4fa3c72-cgu.0.rcgu.o)
                0xffff8000402196d0                core::fmt::num::<impl core::fmt::LowerExp for u128>::fmt
 .text._ZN4core3fmt3num54_$LT$impl$u20$core..fmt..LowerHex$u20$for$u20$i128$GT$3fmt17hb7c2328b2927a7e4E
                0xffff8000402196e4       0x84 bin/obj/rslib.a(core-dca77d77b03929cc.core.bbd04c23a4fa3c72-cgu.0.rcgu.o)
                0xffff8000402196e4                core::fmt::num::<impl core::fmt::LowerHex for i128>::fmt
 .text._ZN4core3fmt3num54_$LT$impl$u20$core..fmt..LowerHex$u20$for$u20$u128$GT$3fmt17hb4c13cc4839c5400E
                0xffff800040219768       0x84 bin/obj/rslib.a(core-dca77d77b03929cc.core.bbd04c23a4fa3c72-cgu.0.rcgu.o)
                0xffff800040219768                core::fmt::num::<impl core::fmt::LowerHex for u128>::fmt
 .text._ZN4core3fmt3num54_$LT$impl$u20$core..fmt..UpperExp$u20$for$u20$i128$GT$3fmt17h5f34c241245c987fE
                0xffff8000402197ec       0x2c bin/obj/rslib.a(core-dca77d77b03929cc.core.bbd04c23a4fa3c72-cgu.0.rcgu.o)
                0xffff8000402197ec                core::fmt::num::<impl core::fmt::UpperExp for i128>::fmt
 .text._ZN4core3fmt3num54_$LT$impl$u20$core..fmt..UpperExp$u20$for$u20$u128$GT$3fmt17h6e59dbb5e808480cE
                0xffff800040219818       0x14 bin/obj/rslib.a(core-dca77d77b03929cc.core.bbd04c23a4fa3c72-cgu.0.rcgu.o)
                0xffff800040219818                core::fmt::num::<impl core::fmt::UpperExp for u128>::fmt
 .text._ZN4core3fmt3num54_$LT$impl$u20$core..fmt..UpperHex$u20$for$u20$i128$GT$3fmt17h37959fbc370fc230E
                0xffff80004021982c       0x84 bin/obj/rslib.a(core-dca77d77b03929cc.core.bbd04c23a4fa3c72-cgu.0.rcgu.o)
                0xffff80004021982c                core::fmt::num::<impl core::fmt::UpperHex for i128>::fmt
 .text._ZN4core3fmt3num54_$LT$impl$u20$core..fmt..UpperHex$u20$for$u20$u128$GT$3fmt17h631d1b7b37eac1b1E
                0xffff8000402198b0       0x84 bin/obj/rslib.a(core-dca77d77b03929cc.core.bbd04c23a4fa3c72-cgu.0.rcgu.o)
                0xffff8000402198b0                core::fmt::num::<impl core::fmt::UpperHex for u128>::fmt
 .text._ZN4core3fmt3num8exp_u12817h1e087a08c7e7821cE
                0xffff800040219934      0x908 bin/obj/rslib.a(core-dca77d77b03929cc.core.bbd04c23a4fa3c72-cgu.0.rcgu.o)
 .text._ZN4core3fmt5Write10write_char17h6c9f62c53d255419E
                0xffff80004021a23c      0x110 bin/obj/rslib.a(core-dca77d77b03929cc.core.bbd04c23a4fa3c72-cgu.0.rcgu.o)
 .text._ZN4core3fmt5Write10write_char17hab3113e5f50b8d55E
                0xffff80004021a34c      0x110 bin/obj/rslib.a(core-dca77d77b03929cc.core.bbd04c23a4fa3c72-cgu.0.rcgu.o)
 .text._ZN4core3fmt5Write10write_char17hafd2cc98f3cc0f9eE
                0xffff80004021a45c      0x110 bin/obj/rslib.a(core-dca77d77b03929cc.core.bbd04c23a4fa3c72-cgu.0.rcgu.o)
 .text._ZN4core3fmt5Write10write_char17hafeca256d596fff5E
                0xffff80004021a56c      0x110 bin/obj/rslib.a(core-dca77d77b03929cc.core.bbd04c23a4fa3c72-cgu.0.rcgu.o)
 .text._ZN4core3fmt5Write9write_fmt17h520d20e91ea5545dE
                0xffff80004021a67c       0x10 bin/obj/rslib.a(core-dca77d77b03929cc.core.bbd04c23a4fa3c72-cgu.0.rcgu.o)
 .text._ZN4core3fmt5Write9write_fmt17h7c092140abd88642E
                0xffff80004021a68c       0x10 bin/obj/rslib.a(core-dca77d77b03929cc.core.bbd04c23a4fa3c72-cgu.0.rcgu.o)
 .text._ZN4core3fmt5Write9write_fmt17h95b21c1cd5581451E
                0xffff80004021a69c       0x10 bin/obj/rslib.a(core-dca77d77b03929cc.core.bbd04c23a4fa3c72-cgu.0.rcgu.o)
 .text._ZN4core3fmt5Write9write_fmt17h9e49c072d75e96bdE
                0xffff80004021a6ac       0x10 bin/obj/rslib.a(core-dca77d77b03929cc.core.bbd04c23a4fa3c72-cgu.0.rcgu.o)
 .text._ZN4core3fmt5Write9write_fmt17hb1a75934f62025f1E
                0xffff80004021a6bc       0x10 bin/obj/rslib.a(core-dca77d77b03929cc.core.bbd04c23a4fa3c72-cgu.0.rcgu.o)
 .text._ZN4core3fmt5float29float_to_decimal_common_exact17h0e50918e8fa3ee13E
                0xffff80004021a6cc      0x330 bin/obj/rslib.a(core-dca77d77b03929cc.core.bbd04c23a4fa3c72-cgu.0.rcgu.o)
 .text._ZN4core3fmt5float29float_to_decimal_common_exact17hb9a2c5d04883627eE
                0xffff80004021a9fc      0x32c bin/obj/rslib.a(core-dca77d77b03929cc.core.bbd04c23a4fa3c72-cgu.0.rcgu.o)
 .text._ZN4core3fmt5float29float_to_decimal_common_exact17hca083ab3e7c8879bE
                0xffff80004021ad28      0x330 bin/obj/rslib.a(core-dca77d77b03929cc.core.bbd04c23a4fa3c72-cgu.0.rcgu.o)
 .text._ZN4core3fmt5float32float_to_decimal_common_shortest17h0ceec187bec91d8aE
                0xffff80004021b058      0x274 bin/obj/rslib.a(core-dca77d77b03929cc.core.bbd04c23a4fa3c72-cgu.0.rcgu.o)
 .text._ZN4core3fmt5float32float_to_decimal_common_shortest17hccc6e50c18412f99E
                0xffff80004021b2cc      0x270 bin/obj/rslib.a(core-dca77d77b03929cc.core.bbd04c23a4fa3c72-cgu.0.rcgu.o)
 .text._ZN4core3fmt5float32float_to_decimal_common_shortest17he31e808fe2c6de51E
                0xffff80004021b53c      0x274 bin/obj/rslib.a(core-dca77d77b03929cc.core.bbd04c23a4fa3c72-cgu.0.rcgu.o)
 .text._ZN4core3fmt5float33float_to_exponential_common_exact17h139f809f18339707E
                0xffff80004021b7b0      0x364 bin/obj/rslib.a(core-dca77d77b03929cc.core.bbd04c23a4fa3c72-cgu.0.rcgu.o)
 .text._ZN4core3fmt5float33float_to_exponential_common_exact17h3b54b606a5e93c9aE
                0xffff80004021bb14      0x360 bin/obj/rslib.a(core-dca77d77b03929cc.core.bbd04c23a4fa3c72-cgu.0.rcgu.o)
 .text._ZN4core3fmt5float33float_to_exponential_common_exact17h72232f886c9338e7E
                0xffff80004021be74      0x364 bin/obj/rslib.a(core-dca77d77b03929cc.core.bbd04c23a4fa3c72-cgu.0.rcgu.o)
 .text._ZN4core3fmt5float36float_to_exponential_common_shortest17hd613faf6d122fffdE
                0xffff80004021c1d8      0x324 bin/obj/rslib.a(core-dca77d77b03929cc.core.bbd04c23a4fa3c72-cgu.0.rcgu.o)
 .text._ZN4core3fmt5float36float_to_exponential_common_shortest17hd81e605b83b8c904E
                0xffff80004021c4fc      0x324 bin/obj/rslib.a(core-dca77d77b03929cc.core.bbd04c23a4fa3c72-cgu.0.rcgu.o)
 .text._ZN4core3fmt5float36float_to_exponential_common_shortest17hf01e77856c0611c9E
                0xffff80004021c820      0x320 bin/obj/rslib.a(core-dca77d77b03929cc.core.bbd04c23a4fa3c72-cgu.0.rcgu.o)
 .text._ZN4core3fmt5float50_$LT$impl$u20$core..fmt..Debug$u20$for$u20$f16$GT$3fmt17h98073eaa521987d1E
                0xffff80004021cb40       0x84 bin/obj/rslib.a(core-dca77d77b03929cc.core.bbd04c23a4fa3c72-cgu.0.rcgu.o)
                0xffff80004021cb40                core::fmt::float::<impl core::fmt::Debug for f16>::fmt
 .text._ZN4core3fmt5float50_$LT$impl$u20$core..fmt..Debug$u20$for$u20$f32$GT$3fmt17h356a0d769d6699d8E
                0xffff80004021cbc4       0x78 bin/obj/rslib.a(core-dca77d77b03929cc.core.bbd04c23a4fa3c72-cgu.0.rcgu.o)
                0xffff80004021cbc4                core::fmt::float::<impl core::fmt::Debug for f32>::fmt
 .text._ZN4core3fmt5float50_$LT$impl$u20$core..fmt..Debug$u20$for$u20$f64$GT$3fmt17hf05e6bf68a96b818E
                0xffff80004021cc3c       0x70 bin/obj/rslib.a(core-dca77d77b03929cc.core.bbd04c23a4fa3c72-cgu.0.rcgu.o)
                0xffff80004021cc3c                core::fmt::float::<impl core::fmt::Debug for f64>::fmt
 .text._ZN4core3fmt5float52_$LT$impl$u20$core..fmt..Display$u20$for$u20$f16$GT$3fmt17h99e2214d9239d00dE
                0xffff80004021ccac       0x2c bin/obj/rslib.a(core-dca77d77b03929cc.core.bbd04c23a4fa3c72-cgu.0.rcgu.o)
                0xffff80004021ccac                core::fmt::float::<impl core::fmt::Display for f16>::fmt
 .text._ZN4core3fmt5float52_$LT$impl$u20$core..fmt..Display$u20$for$u20$f32$GT$3fmt17h65e0a609525384cfE
                0xffff80004021ccd8       0x2c bin/obj/rslib.a(core-dca77d77b03929cc.core.bbd04c23a4fa3c72-cgu.0.rcgu.o)
                0xffff80004021ccd8                core::fmt::float::<impl core::fmt::Display for f32>::fmt
 .text._ZN4core3fmt5float52_$LT$impl$u20$core..fmt..Display$u20$for$u20$f64$GT$3fmt17he0314ea48bfe4fd0E
                0xffff80004021cd04       0x2c bin/obj/rslib.a(core-dca77d77b03929cc.core.bbd04c23a4fa3c72-cgu.0.rcgu.o)
                0xffff80004021cd04                core::fmt::float::<impl core::fmt::Display for f64>::fmt
 .text._ZN4core3fmt5float53_$LT$impl$u20$core..fmt..LowerExp$u20$for$u20$f16$GT$3fmt17h32eae0d8e61a65e8E
                0xffff80004021cd30       0x38 bin/obj/rslib.a(core-dca77d77b03929cc.core.bbd04c23a4fa3c72-cgu.0.rcgu.o)
                0xffff80004021cd30                core::fmt::float::<impl core::fmt::LowerExp for f16>::fmt
 .text._ZN4core3fmt5float53_$LT$impl$u20$core..fmt..LowerExp$u20$for$u20$f32$GT$3fmt17h48c202800b407b9eE
                0xffff80004021cd68       0x38 bin/obj/rslib.a(core-dca77d77b03929cc.core.bbd04c23a4fa3c72-cgu.0.rcgu.o)
                0xffff80004021cd68                core::fmt::float::<impl core::fmt::LowerExp for f32>::fmt
 .text._ZN4core3fmt5float53_$LT$impl$u20$core..fmt..LowerExp$u20$for$u20$f64$GT$3fmt17h12fcc30f7b05009fE
                0xffff80004021cda0       0x38 bin/obj/rslib.a(core-dca77d77b03929cc.core.bbd04c23a4fa3c72-cgu.0.rcgu.o)
                0xffff80004021cda0                core::fmt::float::<impl core::fmt::LowerExp for f64>::fmt
 .text._ZN4core3fmt5float53_$LT$impl$u20$core..fmt..UpperExp$u20$for$u20$f16$GT$3fmt17h83654050f23ca0ecE
                0xffff80004021cdd8       0x38 bin/obj/rslib.a(core-dca77d77b03929cc.core.bbd04c23a4fa3c72-cgu.0.rcgu.o)
                0xffff80004021cdd8                core::fmt::float::<impl core::fmt::UpperExp for f16>::fmt
 .text._ZN4core3fmt5float53_$LT$impl$u20$core..fmt..UpperExp$u20$for$u20$f32$GT$3fmt17haac13dd2190c86bbE
                0xffff80004021ce10       0x38 bin/obj/rslib.a(core-dca77d77b03929cc.core.bbd04c23a4fa3c72-cgu.0.rcgu.o)
                0xffff80004021ce10                core::fmt::float::<impl core::fmt::UpperExp for f32>::fmt
 .text._ZN4core3fmt5float53_$LT$impl$u20$core..fmt..UpperExp$u20$for$u20$f64$GT$3fmt17hb5db0cd4a81cbe98E
                0xffff80004021ce48       0x38 bin/obj/rslib.a(core-dca77d77b03929cc.core.bbd04c23a4fa3c72-cgu.0.rcgu.o)
                0xffff80004021ce48                core::fmt::float::<impl core::fmt::UpperExp for f64>::fmt
 .text._ZN4core3fmt5write17h698d48d1740424bfE
                0xffff80004021ce80      0x1fc bin/obj/rslib.a(core-dca77d77b03929cc.core.bbd04c23a4fa3c72-cgu.0.rcgu.o)
                0xffff80004021ce80                core::fmt::write
 .text._ZN4core3fmt8builders10DebugTuple21finish_non_exhaustive17hd2c31e03f38e3753E
                0xffff80004021d07c       0xd8 bin/obj/rslib.a(core-dca77d77b03929cc.core.bbd04c23a4fa3c72-cgu.0.rcgu.o)
                0xffff80004021d07c                core::fmt::builders::DebugTuple::finish_non_exhaustive
 .text._ZN4core3fmt8builders10DebugTuple5field17h0c3dc53d82f7d67cE
                0xffff80004021d154      0x148 bin/obj/rslib.a(core-dca77d77b03929cc.core.bbd04c23a4fa3c72-cgu.0.rcgu.o)
                0xffff80004021d154                core::fmt::builders::DebugTuple::field
 .text._ZN4core3fmt8builders10DebugTuple6finish17he2f6749e23997c91E
                0xffff80004021d29c       0xb4 bin/obj/rslib.a(core-dca77d77b03929cc.core.bbd04c23a4fa3c72-cgu.0.rcgu.o)
                0xffff80004021d29c                core::fmt::builders::DebugTuple::finish
 .text._ZN4core3fmt8builders10PadAdapter4wrap17h0aa4106c3af43afeE
                0xffff80004021d350       0x4c bin/obj/rslib.a(core-dca77d77b03929cc.core.bbd04c23a4fa3c72-cgu.0.rcgu.o)
                0xffff80004021d350                core::fmt::builders::PadAdapter::wrap
 .text._ZN4core3fmt8builders11DebugStruct21finish_non_exhaustive17h9d430e37bcaaaa21E
                0xffff80004021d39c       0xdc bin/obj/rslib.a(core-dca77d77b03929cc.core.bbd04c23a4fa3c72-cgu.0.rcgu.o)
                0xffff80004021d39c                core::fmt::builders::DebugStruct::finish_non_exhaustive
 .text._ZN4core3fmt8builders11DebugStruct5field17hdd0b0d168b5ab83eE
                0xffff80004021d478      0x1bc bin/obj/rslib.a(core-dca77d77b03929cc.core.bbd04c23a4fa3c72-cgu.0.rcgu.o)
                0xffff80004021d478                core::fmt::builders::DebugStruct::field
 .text._ZN4core3fmt8builders11DebugStruct6finish17h3c820a47c4c345e7E
                0xffff80004021d634       0x78 bin/obj/rslib.a(core-dca77d77b03929cc.core.bbd04c23a4fa3c72-cgu.0.rcgu.o)
                0xffff80004021d634                core::fmt::builders::DebugStruct::finish
 .text._ZN4core3fmt8builders8DebugMap21finish_non_exhaustive17hc6fb43df59fedc4eE
                0xffff80004021d6ac      0x110 bin/obj/rslib.a(core-dca77d77b03929cc.core.bbd04c23a4fa3c72-cgu.0.rcgu.o)
                0xffff80004021d6ac                core::fmt::builders::DebugMap::finish_non_exhaustive
 .text._ZN4core3fmt8builders8DebugMap3key17h8e51fdb022aefab0E
                0xffff80004021d7bc      0x1a4 bin/obj/rslib.a(core-dca77d77b03929cc.core.bbd04c23a4fa3c72-cgu.0.rcgu.o)
                0xffff80004021d7bc                core::fmt::builders::DebugMap::key
 .text._ZN4core3fmt8builders8DebugMap5entry17he1feed0c379d3c1cE
                0xffff80004021d960      0x120 bin/obj/rslib.a(core-dca77d77b03929cc.core.bbd04c23a4fa3c72-cgu.0.rcgu.o)
                0xffff80004021d960                core::fmt::builders::DebugMap::entry
 .text._ZN4core3fmt8builders8DebugMap5value17h88128e8e16e24ffbE
                0xffff80004021da80      0x110 bin/obj/rslib.a(core-dca77d77b03929cc.core.bbd04c23a4fa3c72-cgu.0.rcgu.o)
                0xffff80004021da80                core::fmt::builders::DebugMap::value
 .text._ZN4core3fmt8builders8DebugMap6finish17he33286f7a29097f0E
                0xffff80004021db90       0x98 bin/obj/rslib.a(core-dca77d77b03929cc.core.bbd04c23a4fa3c72-cgu.0.rcgu.o)
                0xffff80004021db90                core::fmt::builders::DebugMap::finish
 .text._ZN4core3fmt8builders8DebugSet21finish_non_exhaustive17h77a51a6c8f58b960E
                0xffff80004021dc28       0xdc bin/obj/rslib.a(core-dca77d77b03929cc.core.bbd04c23a4fa3c72-cgu.0.rcgu.o)
                0xffff80004021dc28                core::fmt::builders::DebugSet::finish_non_exhaustive
 .text._ZN4core3fmt8builders8DebugSet5entry17hbdd9c66ace52c39bE
                0xffff80004021dd04      0x144 bin/obj/rslib.a(core-dca77d77b03929cc.core.bbd04c23a4fa3c72-cgu.0.rcgu.o)
                0xffff80004021dd04                core::fmt::builders::DebugList::entry
                0xffff80004021dd04                core::fmt::builders::DebugSet::entry
 .text._ZN4core3fmt8builders8DebugSet6finish17hfa9ca6d659acc04eE
                0xffff80004021de48       0x58 bin/obj/rslib.a(core-dca77d77b03929cc.core.bbd04c23a4fa3c72-cgu.0.rcgu.o)
                0xffff80004021de48                core::fmt::builders::DebugSet::finish
 .text._ZN4core3fmt8builders9DebugList21finish_non_exhaustive17hcf32429ba4066729E
                0xffff80004021dea0      0x104 bin/obj/rslib.a(core-dca77d77b03929cc.core.bbd04c23a4fa3c72-cgu.0.rcgu.o)
                0xffff80004021dea0                core::fmt::builders::DebugList::finish_non_exhaustive
 .text._ZN4core3fmt8builders9DebugList6finish17h28c375beadc9f2e6E
                0xffff80004021dfa4       0x58 bin/obj/rslib.a(core-dca77d77b03929cc.core.bbd04c23a4fa3c72-cgu.0.rcgu.o)
                0xffff80004021dfa4                core::fmt::builders::DebugList::finish
 .text._ZN4core3fmt9Formatter10debug_list17h922c86ffd02232baE
                0xffff80004021dffc       0x44 bin/obj/rslib.a(core-dca77d77b03929cc.core.bbd04c23a4fa3c72-cgu.0.rcgu.o)
                0xffff80004021dffc                core::fmt::Formatter::debug_list
 .text._ZN4core3fmt9Formatter11debug_tuple17h2e2a7ba79609056eE
                0xffff80004021e040       0x4c bin/obj/rslib.a(core-dca77d77b03929cc.core.bbd04c23a4fa3c72-cgu.0.rcgu.o)
                0xffff80004021e040                core::fmt::Formatter::debug_tuple
 .text._ZN4core3fmt9Formatter12debug_struct17hdbd72ad4649c9f7bE
                0xffff80004021e08c       0x38 bin/obj/rslib.a(core-dca77d77b03929cc.core.bbd04c23a4fa3c72-cgu.0.rcgu.o)
                0xffff80004021e08c                core::fmt::Formatter::debug_struct
 .text._ZN4core3fmt9Formatter12pad_integral12write_prefix17h569d1cc329869993E
                0xffff80004021e0c4       0x88 bin/obj/rslib.a(core-dca77d77b03929cc.core.bbd04c23a4fa3c72-cgu.0.rcgu.o)
 .text._ZN4core3fmt9Formatter12pad_integral17h28f403dc3cbb6acbE
                0xffff80004021e14c      0x49c bin/obj/rslib.a(core-dca77d77b03929cc.core.bbd04c23a4fa3c72-cgu.0.rcgu.o)
                0xffff80004021e14c                core::fmt::Formatter::pad_integral
 .text._ZN4core3fmt9Formatter19pad_formatted_parts17h96499d19d5990aafE
                0xffff80004021e5e8      0x250 bin/obj/rslib.a(core-dca77d77b03929cc.core.bbd04c23a4fa3c72-cgu.0.rcgu.o)
 .text._ZN4core3fmt9Formatter21write_formatted_parts17hee9cfe33ec2a9653E
                0xffff80004021e838      0x210 bin/obj/rslib.a(core-dca77d77b03929cc.core.bbd04c23a4fa3c72-cgu.0.rcgu.o)
 .text._ZN4core3fmt9Formatter25debug_tuple_field1_finish17he4e9ba36a234a2f9E
                0xffff80004021ea48      0x160 bin/obj/rslib.a(core-dca77d77b03929cc.core.bbd04c23a4fa3c72-cgu.0.rcgu.o)
                0xffff80004021ea48                core::fmt::Formatter::debug_tuple_field1_finish
 .text._ZN4core3fmt9Formatter25debug_tuple_field2_finish17habc8be0986eba553E
                0xffff80004021eba8      0x1f8 bin/obj/rslib.a(core-dca77d77b03929cc.core.bbd04c23a4fa3c72-cgu.0.rcgu.o)
                0xffff80004021eba8                core::fmt::Formatter::debug_tuple_field2_finish
 .text._ZN4core3fmt9Formatter25debug_tuple_field3_finish17h4762807e2b53284eE
                0xffff80004021eda0      0x2ac bin/obj/rslib.a(core-dca77d77b03929cc.core.bbd04c23a4fa3c72-cgu.0.rcgu.o)
                0xffff80004021eda0                core::fmt::Formatter::debug_tuple_field3_finish
 .text._ZN4core3fmt9Formatter25debug_tuple_field4_finish17hc976f9a215e887dfE
                0xffff80004021f04c      0x35c bin/obj/rslib.a(core-dca77d77b03929cc.core.bbd04c23a4fa3c72-cgu.0.rcgu.o)
                0xffff80004021f04c                core::fmt::Formatter::debug_tuple_field4_finish
 .text._ZN4core3fmt9Formatter25debug_tuple_field5_finish17h2b760394f14de004E
                0xffff80004021f3a8      0x40c bin/obj/rslib.a(core-dca77d77b03929cc.core.bbd04c23a4fa3c72-cgu.0.rcgu.o)
                0xffff80004021f3a8                core::fmt::Formatter::debug_tuple_field5_finish
 .text._ZN4core3fmt9Formatter25debug_tuple_fields_finish17h52d38fd0790b5216E
                0xffff80004021f7b4      0x290 bin/obj/rslib.a(core-dca77d77b03929cc.core.bbd04c23a4fa3c72-cgu.0.rcgu.o)
                0xffff80004021f7b4                core::fmt::Formatter::debug_tuple_fields_finish
 .text._ZN4core3fmt9Formatter26debug_struct_field1_finish17ha222e10f7e4885b3E
                0xffff80004021fa44       0xc8 bin/obj/rslib.a(core-dca77d77b03929cc.core.bbd04c23a4fa3c72-cgu.0.rcgu.o)
                0xffff80004021fa44                core::fmt::Formatter::debug_struct_field1_finish
 .text._ZN4core3fmt9Formatter26debug_struct_field2_finish17h8d9ba6dd7a0207ecE
                0xffff80004021fb0c       0xfc bin/obj/rslib.a(core-dca77d77b03929cc.core.bbd04c23a4fa3c72-cgu.0.rcgu.o)
                0xffff80004021fb0c                core::fmt::Formatter::debug_struct_field2_finish
 .text._ZN4core3fmt9Formatter26debug_struct_field3_finish17h602bea5862078d42E
                0xffff80004021fc08      0x120 bin/obj/rslib.a(core-dca77d77b03929cc.core.bbd04c23a4fa3c72-cgu.0.rcgu.o)
                0xffff80004021fc08                core::fmt::Formatter::debug_struct_field3_finish
 .text._ZN4core3fmt9Formatter26debug_struct_field4_finish17hf1e9262b3c20e508E
                0xffff80004021fd28      0x140 bin/obj/rslib.a(core-dca77d77b03929cc.core.bbd04c23a4fa3c72-cgu.0.rcgu.o)
                0xffff80004021fd28                core::fmt::Formatter::debug_struct_field4_finish
 .text._ZN4core3fmt9Formatter26debug_struct_field5_finish17h1ab8e70ff3a2c5d6E
                0xffff80004021fe68      0x164 bin/obj/rslib.a(core-dca77d77b03929cc.core.bbd04c23a4fa3c72-cgu.0.rcgu.o)
                0xffff80004021fe68                core::fmt::Formatter::debug_struct_field5_finish
 .text._ZN4core3fmt9Formatter26debug_struct_fields_finish17h06a4241c331ab08fE
                0xffff80004021ffcc      0x104 bin/obj/rslib.a(core-dca77d77b03929cc.core.bbd04c23a4fa3c72-cgu.0.rcgu.o)
                0xffff80004021ffcc                core::fmt::Formatter::debug_struct_fields_finish
 .text._ZN4core3fmt9Formatter3pad17h51d0bfca220bbd48E
                0xffff8000402200d0      0x3ec bin/obj/rslib.a(core-dca77d77b03929cc.core.bbd04c23a4fa3c72-cgu.0.rcgu.o)
                0xffff8000402200d0                core::fmt::Formatter::pad
 .text._ZN4core3fmt9Formatter4fill17he456f266cf96235cE
                0xffff8000402204bc        0xc bin/obj/rslib.a(core-dca77d77b03929cc.core.bbd04c23a4fa3c72-cgu.0.rcgu.o)
                0xffff8000402204bc                core::fmt::Formatter::fill
 .text._ZN4core3fmt9Formatter9debug_map17hf105814dde56f830E
                0xffff8000402204c8       0x4c bin/obj/rslib.a(core-dca77d77b03929cc.core.bbd04c23a4fa3c72-cgu.0.rcgu.o)
                0xffff8000402204c8                core::fmt::Formatter::debug_map
 .text._ZN4core3fmt9Formatter9debug_set17h94f8ce656713e22fE
                0xffff800040220514       0x44 bin/obj/rslib.a(core-dca77d77b03929cc.core.bbd04c23a4fa3c72-cgu.0.rcgu.o)
                0xffff800040220514                core::fmt::Formatter::debug_set
 .text._ZN4core3fmt9Formatter9write_str17hc6782760e8b9a4b0E
                0xffff800040220558        0xc bin/obj/rslib.a(core-dca77d77b03929cc.core.bbd04c23a4fa3c72-cgu.0.rcgu.o)
                0xffff800040220558                <core::fmt::Formatter as core::fmt::Write>::write_str
                0xffff800040220558                core::fmt::Formatter::write_str
 .text.unlikely._ZN4core3mem11conjure_zst8do_panic7runtime17h72dddb692cee0024E
                0xffff800040220564       0x4c bin/obj/rslib.a(core-dca77d77b03929cc.core.bbd04c23a4fa3c72-cgu.0.rcgu.o)
                0xffff800040220564                core::mem::conjure_zst::do_panic::runtime
 .text._ZN4core3net6parser44_$LT$impl$u20$core..net..ip_addr..IpAddr$GT$11parse_ascii17hc252695d83f05876E
                0xffff8000402205b0      0x164 bin/obj/rslib.a(core-dca77d77b03929cc.core.bbd04c23a4fa3c72-cgu.0.rcgu.o)
                0xffff8000402205b0                core::net::parser::<impl core::net::ip_addr::IpAddr>::parse_ascii
 .text._ZN4core3net6parser46_$LT$impl$u20$core..net..ip_addr..Ipv4Addr$GT$11parse_ascii17h4798ab0f7355bc81E
                0xffff800040220714       0x74 bin/obj/rslib.a(core-dca77d77b03929cc.core.bbd04c23a4fa3c72-cgu.0.rcgu.o)
                0xffff800040220714                core::net::parser::<impl core::net::ip_addr::Ipv4Addr>::parse_ascii
 .text._ZN4core3net6parser46_$LT$impl$u20$core..net..ip_addr..Ipv6Addr$GT$11parse_ascii17h48c3b40536adbdbaE
                0xffff800040220788       0x9c bin/obj/rslib.a(core-dca77d77b03929cc.core.bbd04c23a4fa3c72-cgu.0.rcgu.o)
                0xffff800040220788                core::net::parser::<impl core::net::ip_addr::Ipv6Addr>::parse_ascii
 .text._ZN4core3net6parser52_$LT$impl$u20$core..net..socket_addr..SocketAddr$GT$11parse_ascii17hf988a201dabebd8eE
                0xffff800040220824      0x1b8 bin/obj/rslib.a(core-dca77d77b03929cc.core.bbd04c23a4fa3c72-cgu.0.rcgu.o)
                0xffff800040220824                core::net::parser::<impl core::net::socket_addr::SocketAddr>::parse_ascii
 .text._ZN4core3net6parser54_$LT$impl$u20$core..net..socket_addr..SocketAddrV4$GT$11parse_ascii17h858beef7becf0e14E
                0xffff8000402209dc       0xf8 bin/obj/rslib.a(core-dca77d77b03929cc.core.bbd04c23a4fa3c72-cgu.0.rcgu.o)
                0xffff8000402209dc                core::net::parser::<impl core::net::socket_addr::SocketAddrV4>::parse_ascii
 .text._ZN4core3net6parser54_$LT$impl$u20$core..net..socket_addr..SocketAddrV6$GT$11parse_ascii17h0b9adf6cc6a7c0aeE
                0xffff800040220ad4       0x7c bin/obj/rslib.a(core-dca77d77b03929cc.core.bbd04c23a4fa3c72-cgu.0.rcgu.o)
                0xffff800040220ad4                core::net::parser::<impl core::net::socket_addr::SocketAddrV6>::parse_ascii
 .text._ZN4core3net6parser6Parser11read_number28_$u7b$$u7b$closure$u7d$$u7d$17h78fa6efe6e829d80E
                0xffff800040220b50      0x2a4 bin/obj/rslib.a(core-dca77d77b03929cc.core.bbd04c23a4fa3c72-cgu.0.rcgu.o)
 .text._ZN4core3net6parser6Parser14read_ipv4_addr17h3d0640c723de0461E
                0xffff800040220df4      0x2c8 bin/obj/rslib.a(core-dca77d77b03929cc.core.bbd04c23a4fa3c72-cgu.0.rcgu.o)
 .text._ZN4core3net6parser6Parser14read_ipv6_addr11read_groups17h4a4091507a7e7621E
                0xffff8000402210bc      0x208 bin/obj/rslib.a(core-dca77d77b03929cc.core.bbd04c23a4fa3c72-cgu.0.rcgu.o)
 .text._ZN4core3net6parser6Parser14read_ipv6_addr17hf0315fb5cf234710E
                0xffff8000402212c4      0x204 bin/obj/rslib.a(core-dca77d77b03929cc.core.bbd04c23a4fa3c72-cgu.0.rcgu.o)
 .text._ZN4core3net6parser6Parser19read_socket_addr_v617ha89bd51b74deb145E
                0xffff8000402214c8      0x264 bin/obj/rslib.a(core-dca77d77b03929cc.core.bbd04c23a4fa3c72-cgu.0.rcgu.o)
 .text._ZN4core3net6parser83_$LT$impl$u20$core..str..traits..FromStr$u20$for$u20$core..net..ip_addr..IpAddr$GT$8from_str17hc0ec102a3d71410fE
                0xffff80004022172c      0x164 bin/obj/rslib.a(core-dca77d77b03929cc.core.bbd04c23a4fa3c72-cgu.0.rcgu.o)
                0xffff80004022172c                core::net::parser::<impl core::str::traits::FromStr for core::net::ip_addr::IpAddr>::from_str
 .text._ZN4core3net6parser85_$LT$impl$u20$core..str..traits..FromStr$u20$for$u20$core..net..ip_addr..Ipv4Addr$GT$8from_str17hec062c7b19c0fe18E
                0xffff800040221890       0x74 bin/obj/rslib.a(core-dca77d77b03929cc.core.bbd04c23a4fa3c72-cgu.0.rcgu.o)
                0xffff800040221890                core::net::parser::<impl core::str::traits::FromStr for core::net::ip_addr::Ipv4Addr>::from_str
 .text._ZN4core3net6parser85_$LT$impl$u20$core..str..traits..FromStr$u20$for$u20$core..net..ip_addr..Ipv6Addr$GT$8from_str17h5a3d749b7e50180dE
                0xffff800040221904       0x9c bin/obj/rslib.a(core-dca77d77b03929cc.core.bbd04c23a4fa3c72-cgu.0.rcgu.o)
                0xffff800040221904                core::net::parser::<impl core::str::traits::FromStr for core::net::ip_addr::Ipv6Addr>::from_str
 .text._ZN4core3net6parser91_$LT$impl$u20$core..str..traits..FromStr$u20$for$u20$core..net..socket_addr..SocketAddr$GT$8from_str17hc426e7ddbe8aea6bE
                0xffff8000402219a0        0x4 bin/obj/rslib.a(core-dca77d77b03929cc.core.bbd04c23a4fa3c72-cgu.0.rcgu.o)
                0xffff8000402219a0                core::net::parser::<impl core::str::traits::FromStr for core::net::socket_addr::SocketAddr>::from_str
 .text._ZN4core3net6parser93_$LT$impl$u20$core..str..traits..FromStr$u20$for$u20$core..net..socket_addr..SocketAddrV4$GT$8from_str17h36962be403606b9bE
                0xffff8000402219a4       0xe8 bin/obj/rslib.a(core-dca77d77b03929cc.core.bbd04c23a4fa3c72-cgu.0.rcgu.o)
                0xffff8000402219a4                core::net::parser::<impl core::str::traits::FromStr for core::net::socket_addr::SocketAddrV4>::from_str
 .text._ZN4core3net6parser93_$LT$impl$u20$core..str..traits..FromStr$u20$for$u20$core..net..socket_addr..SocketAddrV6$GT$8from_str17ha8e8d55d9c761471E
                0xffff800040221a8c       0x7c bin/obj/rslib.a(core-dca77d77b03929cc.core.bbd04c23a4fa3c72-cgu.0.rcgu.o)
                0xffff800040221a8c                core::net::parser::<impl core::str::traits::FromStr for core::net::socket_addr::SocketAddrV6>::from_str
 .text.unlikely._ZN4core3num14overflow_panic3add17h5410f6567620b172E
                0xffff800040221b08       0x34 bin/obj/rslib.a(core-dca77d77b03929cc.core.bbd04c23a4fa3c72-cgu.0.rcgu.o)
                0xffff800040221b08                core::num::overflow_panic::add
 .text.unlikely._ZN4core3num14overflow_panic3div17h2268d6f0b7d5d231E
                0xffff800040221b3c       0x34 bin/obj/rslib.a(core-dca77d77b03929cc.core.bbd04c23a4fa3c72-cgu.0.rcgu.o)
                0xffff800040221b3c                core::num::overflow_panic::div
 .text.unlikely._ZN4core3num14overflow_panic3mul17hfc3d54877def1c4eE
                0xffff800040221b70       0x34 bin/obj/rslib.a(core-dca77d77b03929cc.core.bbd04c23a4fa3c72-cgu.0.rcgu.o)
                0xffff800040221b70                core::num::overflow_panic::mul
 .text.unlikely._ZN4core3num14overflow_panic3neg17h03d0ec61d2796cb6E
                0xffff800040221ba4       0x34 bin/obj/rslib.a(core-dca77d77b03929cc.core.bbd04c23a4fa3c72-cgu.0.rcgu.o)
                0xffff800040221ba4                core::num::overflow_panic::neg
 .text.unlikely._ZN4core3num14overflow_panic3rem17ha868917ab9956372E
                0xffff800040221bd8       0x34 bin/obj/rslib.a(core-dca77d77b03929cc.core.bbd04c23a4fa3c72-cgu.0.rcgu.o)
                0xffff800040221bd8                core::num::overflow_panic::rem
 .text.unlikely._ZN4core3num14overflow_panic3shl17h7cb24b3d213f8254E
                0xffff800040221c0c       0x34 bin/obj/rslib.a(core-dca77d77b03929cc.core.bbd04c23a4fa3c72-cgu.0.rcgu.o)
                0xffff800040221c0c                core::num::overflow_panic::shl
 .text.unlikely._ZN4core3num14overflow_panic3shr17h9e0ab7dcd18610b3E
                0xffff800040221c40       0x34 bin/obj/rslib.a(core-dca77d77b03929cc.core.bbd04c23a4fa3c72-cgu.0.rcgu.o)
                0xffff800040221c40                core::num::overflow_panic::shr
 .text.unlikely._ZN4core3num14overflow_panic3sub17h323f183954b0c380E
                0xffff800040221c74       0x34 bin/obj/rslib.a(core-dca77d77b03929cc.core.bbd04c23a4fa3c72-cgu.0.rcgu.o)
                0xffff800040221c74                core::num::overflow_panic::sub
 .text.unlikely._ZN4core3num22from_ascii_radix_panic17hb40744d8591454c1E
                0xffff800040221ca8        0xc bin/obj/rslib.a(core-dca77d77b03929cc.core.bbd04c23a4fa3c72-cgu.0.rcgu.o)
                0xffff800040221ca8                core::num::from_ascii_radix_panic
 .text.unlikely._ZN4core3num22from_ascii_radix_panic8do_panic7runtime17ha8c19c59ce7013dbE
                0xffff800040221cb4       0x44 bin/obj/rslib.a(core-dca77d77b03929cc.core.bbd04c23a4fa3c72-cgu.0.rcgu.o)
                0xffff800040221cb4                core::num::from_ascii_radix_panic::do_panic::runtime
 .text._ZN4core3num3fmt4Part5write17hf0d845b4e26f84f9E
                0xffff800040221cf8      0x188 bin/obj/rslib.a(core-dca77d77b03929cc.core.bbd04c23a4fa3c72-cgu.0.rcgu.o)
                0xffff800040221cf8                core::num::fmt::Part::write
 .text._ZN4core3num3fmt9Formatted3len17hf4093cc2a1cb6bebE
                0xffff800040221e80       0xa8 bin/obj/rslib.a(core-dca77d77b03929cc.core.bbd04c23a4fa3c72-cgu.0.rcgu.o)
                0xffff800040221e80                core::num::fmt::Formatted::len
 .text._ZN4core3num3fmt9Formatted5write17h8579e6f8deed03b7E
                0xffff800040221f28       0xc0 bin/obj/rslib.a(core-dca77d77b03929cc.core.bbd04c23a4fa3c72-cgu.0.rcgu.o)
                0xffff800040221f28                core::num::fmt::Formatted::write
 .text._ZN4core3num6bignum5tests6Big8x310bit_length17haa79a72ff0bef12fE
                0xffff800040221fe8       0xc4 bin/obj/rslib.a(core-dca77d77b03929cc.core.bbd04c23a4fa3c72-cgu.0.rcgu.o)
                0xffff800040221fe8                core::num::bignum::tests::Big8x3::bit_length
 .text._ZN4core3num6bignum5tests6Big8x310mul_digits17hb6e25ba7dffbc79eE
                0xffff8000402220ac      0x370 bin/obj/rslib.a(core-dca77d77b03929cc.core.bbd04c23a4fa3c72-cgu.0.rcgu.o)
                0xffff8000402220ac                core::num::bignum::tests::Big8x3::mul_digits
 .text._ZN4core3num6bignum5tests6Big8x313div_rem_small17hc5696436d8c797a2E
                0xffff80004022241c       0xcc bin/obj/rslib.a(core-dca77d77b03929cc.core.bbd04c23a4fa3c72-cgu.0.rcgu.o)
                0xffff80004022241c                core::num::bignum::tests::Big8x3::div_rem_small
 .text._ZN4core3num6bignum5tests6Big8x33add17he649fbe69f290707E
                0xffff8000402224e8       0xb4 bin/obj/rslib.a(core-dca77d77b03929cc.core.bbd04c23a4fa3c72-cgu.0.rcgu.o)
                0xffff8000402224e8                core::num::bignum::tests::Big8x3::add
 .text._ZN4core3num6bignum5tests6Big8x33sub17hb970f1f23ccbaedeE
                0xffff80004022259c       0xa8 bin/obj/rslib.a(core-dca77d77b03929cc.core.bbd04c23a4fa3c72-cgu.0.rcgu.o)
                0xffff80004022259c                core::num::bignum::tests::Big8x3::sub
 .text._ZN4core3num6bignum5tests6Big8x36digits17h11d8af2ca95785d8E
                0xffff800040222644       0x2c bin/obj/rslib.a(core-dca77d77b03929cc.core.bbd04c23a4fa3c72-cgu.0.rcgu.o)
                0xffff800040222644                core::num::bignum::tests::Big8x3::digits
 .text._ZN4core3num6bignum5tests6Big8x37get_bit17hcdb47ed76699ac52E
                0xffff800040222670       0x40 bin/obj/rslib.a(core-dca77d77b03929cc.core.bbd04c23a4fa3c72-cgu.0.rcgu.o)
                0xffff800040222670                core::num::bignum::tests::Big8x3::get_bit
 .text._ZN4core3num6bignum5tests6Big8x37is_zero17h442a4f584cdfb033E
                0xffff8000402226b0       0x78 bin/obj/rslib.a(core-dca77d77b03929cc.core.bbd04c23a4fa3c72-cgu.0.rcgu.o)
                0xffff8000402226b0                core::num::bignum::tests::Big8x3::is_zero
 .text._ZN4core3num6bignum5tests6Big8x38from_u6417h8560f34e965cf982E
                0xffff800040222728       0xb0 bin/obj/rslib.a(core-dca77d77b03929cc.core.bbd04c23a4fa3c72-cgu.0.rcgu.o)
                0xffff800040222728                core::num::bignum::tests::Big8x3::from_u64
 .text._ZN4core3num6bignum5tests6Big8x38mul_pow217h3ecb407d01dc2a43E
                0xffff8000402227d8      0x6a0 bin/obj/rslib.a(core-dca77d77b03929cc.core.bbd04c23a4fa3c72-cgu.0.rcgu.o)
                0xffff8000402227d8                core::num::bignum::tests::Big8x3::mul_pow2
 .text._ZN4core3num6bignum5tests6Big8x38mul_pow517ha94c529efd7d52a1E
                0xffff800040222e78      0x1a8 bin/obj/rslib.a(core-dca77d77b03929cc.core.bbd04c23a4fa3c72-cgu.0.rcgu.o)
                0xffff800040222e78                core::num::bignum::tests::Big8x3::mul_pow5
 .text._ZN4core3num6bignum5tests6Big8x39add_small17h912bb3682794db7eE
                0xffff800040223020       0x8c bin/obj/rslib.a(core-dca77d77b03929cc.core.bbd04c23a4fa3c72-cgu.0.rcgu.o)
                0xffff800040223020                core::num::bignum::tests::Big8x3::add_small
 .text._ZN4core3num6bignum5tests6Big8x39mul_small17hd2de5d25e9b2c25eE
                0xffff8000402230ac       0xac bin/obj/rslib.a(core-dca77d77b03929cc.core.bbd04c23a4fa3c72-cgu.0.rcgu.o)
                0xffff8000402230ac                core::num::bignum::tests::Big8x3::mul_small
 .text._ZN4core3num6bignum8Big32x4010bit_length17h5c89a586bdd907dcE
                0xffff800040223158       0x84 bin/obj/rslib.a(core-dca77d77b03929cc.core.bbd04c23a4fa3c72-cgu.0.rcgu.o)
                0xffff800040223158                core::num::bignum::Big32x40::bit_length
 .text._ZN4core3num6bignum8Big32x4010mul_digits17hc1f248f26d932738E
                0xffff8000402231dc      0x2b0 bin/obj/rslib.a(core-dca77d77b03929cc.core.bbd04c23a4fa3c72-cgu.0.rcgu.o)
                0xffff8000402231dc                core::num::bignum::Big32x40::mul_digits
 .text._ZN4core3num6bignum8Big32x4013div_rem_small17h71f09ad19d01391eE
                0xffff80004022348c       0x90 bin/obj/rslib.a(core-dca77d77b03929cc.core.bbd04c23a4fa3c72-cgu.0.rcgu.o)
                0xffff80004022348c                core::num::bignum::Big32x40::div_rem_small
 .text._ZN4core3num6bignum8Big32x403add17h8e14960d6dc1fa61E
                0xffff80004022351c       0xa0 bin/obj/rslib.a(core-dca77d77b03929cc.core.bbd04c23a4fa3c72-cgu.0.rcgu.o)
                0xffff80004022351c                core::num::bignum::Big32x40::add
 .text._ZN4core3num6bignum8Big32x403sub17hcc26ee574542a10aE
                0xffff8000402235bc       0x98 bin/obj/rslib.a(core-dca77d77b03929cc.core.bbd04c23a4fa3c72-cgu.0.rcgu.o)
                0xffff8000402235bc                core::num::bignum::Big32x40::sub
 .text._ZN4core3num6bignum8Big32x406digits17h28ba5ee8564c9576E
                0xffff800040223654       0x2c bin/obj/rslib.a(core-dca77d77b03929cc.core.bbd04c23a4fa3c72-cgu.0.rcgu.o)
                0xffff800040223654                core::num::bignum::Big32x40::digits
 .text._ZN4core3num6bignum8Big32x407get_bit17he9c782ebaf464074E
                0xffff800040223680       0x38 bin/obj/rslib.a(core-dca77d77b03929cc.core.bbd04c23a4fa3c72-cgu.0.rcgu.o)
                0xffff800040223680                core::num::bignum::Big32x40::get_bit
 .text._ZN4core3num6bignum8Big32x407is_zero17h966be28cb2fa879bE
                0xffff8000402236b8       0x50 bin/obj/rslib.a(core-dca77d77b03929cc.core.bbd04c23a4fa3c72-cgu.0.rcgu.o)
                0xffff8000402236b8                core::num::bignum::Big32x40::is_zero
 .text._ZN4core3num6bignum8Big32x408from_u6417ha6bac5905690d359E
                0xffff800040223708       0x44 bin/obj/rslib.a(core-dca77d77b03929cc.core.bbd04c23a4fa3c72-cgu.0.rcgu.o)
                0xffff800040223708                core::num::bignum::Big32x40::from_u64
 .text._ZN4core3num6bignum8Big32x408mul_pow217h33d36dc2f957bcb3E
                0xffff80004022374c      0x294 bin/obj/rslib.a(core-dca77d77b03929cc.core.bbd04c23a4fa3c72-cgu.0.rcgu.o)
                0xffff80004022374c                core::num::bignum::Big32x40::mul_pow2
 .text._ZN4core3num6bignum8Big32x408mul_pow517h0f5707fe6c6cda7fE
                0xffff8000402239e0      0x1b4 bin/obj/rslib.a(core-dca77d77b03929cc.core.bbd04c23a4fa3c72-cgu.0.rcgu.o)
                0xffff8000402239e0                core::num::bignum::Big32x40::mul_pow5
 .text._ZN4core3num6bignum8Big32x409add_small17hb4a0aebc60f64621E
                0xffff800040223b94      0x3ec bin/obj/rslib.a(core-dca77d77b03929cc.core.bbd04c23a4fa3c72-cgu.0.rcgu.o)
                0xffff800040223b94                core::num::bignum::Big32x40::add_small
 .text._ZN4core3num6bignum8Big32x409mul_small17h462397094e170397E
                0xffff800040223f80       0x8c bin/obj/rslib.a(core-dca77d77b03929cc.core.bbd04c23a4fa3c72-cgu.0.rcgu.o)
                0xffff800040223f80                core::num::bignum::Big32x40::mul_small
 .text._ZN4core3num7dec2flt11decimal_seq10DecimalSeq10left_shift17h701c26b17013561cE
                0xffff80004022400c      0x214 bin/obj/rslib.a(core-dca77d77b03929cc.core.bbd04c23a4fa3c72-cgu.0.rcgu.o)
                0xffff80004022400c                core::num::dec2flt::decimal_seq::DecimalSeq::left_shift
 .text._ZN4core3num7dec2flt11decimal_seq10DecimalSeq11right_shift17h49c3480ee085193cE
                0xffff800040224220      0x1c0 bin/obj/rslib.a(core-dca77d77b03929cc.core.bbd04c23a4fa3c72-cgu.0.rcgu.o)
                0xffff800040224220                core::num::dec2flt::decimal_seq::DecimalSeq::right_shift
 .text._ZN4core3num7dec2flt11decimal_seq10DecimalSeq4trim17hf1834547a4342d1fE
                0xffff8000402243e0       0x50 bin/obj/rslib.a(core-dca77d77b03929cc.core.bbd04c23a4fa3c72-cgu.0.rcgu.o)
                0xffff8000402243e0                core::num::dec2flt::decimal_seq::DecimalSeq::trim
 .text._ZN4core3num7dec2flt11decimal_seq10DecimalSeq5round17h293dc2da9f26dcd2E
                0xffff800040224430       0xb4 bin/obj/rslib.a(core-dca77d77b03929cc.core.bbd04c23a4fa3c72-cgu.0.rcgu.o)
                0xffff800040224430                core::num::dec2flt::decimal_seq::DecimalSeq::round
 .text._ZN4core3num7dec2flt11decimal_seq17parse_decimal_seq17h7365abecc72dfe72E
                0xffff8000402244e4      0x458 bin/obj/rslib.a(core-dca77d77b03929cc.core.bbd04c23a4fa3c72-cgu.0.rcgu.o)
                0xffff8000402244e4                core::num::dec2flt::decimal_seq::parse_decimal_seq
 .text._ZN4core3num7dec2flt5parse12parse_number17h90a2ce8dc52fcc8dE
                0xffff80004022493c      0x4f0 bin/obj/rslib.a(core-dca77d77b03929cc.core.bbd04c23a4fa3c72-cgu.0.rcgu.o)
                0xffff80004022493c                core::num::dec2flt::parse::parse_number
 .text._ZN4core3num7dec2flt60_$LT$impl$u20$core..str..traits..FromStr$u20$for$u20$f16$GT$8from_str17hbdbce320d9ba8ad7E
                0xffff800040224e2c      0x504 bin/obj/rslib.a(core-dca77d77b03929cc.core.bbd04c23a4fa3c72-cgu.0.rcgu.o)
                0xffff800040224e2c                core::num::dec2flt::<impl core::str::traits::FromStr for f16>::from_str
 .text._ZN4core3num7dec2flt60_$LT$impl$u20$core..str..traits..FromStr$u20$for$u20$f32$GT$8from_str17hcea29ac1dd886483E
                0xffff800040225330      0x4e8 bin/obj/rslib.a(core-dca77d77b03929cc.core.bbd04c23a4fa3c72-cgu.0.rcgu.o)
                0xffff800040225330                core::num::dec2flt::<impl core::str::traits::FromStr for f32>::from_str
 .text._ZN4core3num7dec2flt60_$LT$impl$u20$core..str..traits..FromStr$u20$for$u20$f64$GT$8from_str17h4ec83531f3b51968E
                0xffff800040225818      0x4b8 bin/obj/rslib.a(core-dca77d77b03929cc.core.bbd04c23a4fa3c72-cgu.0.rcgu.o)
                0xffff800040225818                core::num::dec2flt::<impl core::str::traits::FromStr for f64>::from_str
 .text._ZN4core3num7dec2flt6lemire13compute_float17h97837084178462edE
                0xffff800040225cd0      0x14c bin/obj/rslib.a(core-dca77d77b03929cc.core.bbd04c23a4fa3c72-cgu.0.rcgu.o)
 .text._ZN4core3num7dec2flt6lemire13compute_float17haa1b9706a504dea2E
                0xffff800040225e1c      0x12c bin/obj/rslib.a(core-dca77d77b03929cc.core.bbd04c23a4fa3c72-cgu.0.rcgu.o)
 .text._ZN4core3num7dec2flt6lemire13compute_float17hd97703f866dcd952E
                0xffff800040225f48      0x150 bin/obj/rslib.a(core-dca77d77b03929cc.core.bbd04c23a4fa3c72-cgu.0.rcgu.o)
 .text._ZN4core3num7dec2flt6lemire22compute_product_approx17h99f55d84c9b1123bE
                0xffff800040226098       0x6c bin/obj/rslib.a(core-dca77d77b03929cc.core.bbd04c23a4fa3c72-cgu.0.rcgu.o)
                0xffff800040226098                core::num::dec2flt::lemire::compute_product_approx
 .text._ZN4core3num7flt2dec17digits_to_dec_str17h603844246b79fe94E
                0xffff800040226104      0x164 bin/obj/rslib.a(core-dca77d77b03929cc.core.bbd04c23a4fa3c72-cgu.0.rcgu.o)
                0xffff800040226104                core::num::flt2dec::digits_to_dec_str
 .text._ZN4core3num7flt2dec17digits_to_exp_str17hb9be12e07db8f6eaE
                0xffff800040226268      0x168 bin/obj/rslib.a(core-dca77d77b03929cc.core.bbd04c23a4fa3c72-cgu.0.rcgu.o)
                0xffff800040226268                core::num::flt2dec::digits_to_exp_str
 .text._ZN4core3num7flt2dec8round_up17h255825e7acf2c1f8E
                0xffff8000402263d0       0xbc bin/obj/rslib.a(core-dca77d77b03929cc.core.bbd04c23a4fa3c72-cgu.0.rcgu.o)
                0xffff8000402263d0                core::num::flt2dec::round_up
 .text._ZN4core3num7flt2dec8strategy5grisu12cached_power17h264b7fef9ff6dcc8E
                0xffff80004022648c       0x74 bin/obj/rslib.a(core-dca77d77b03929cc.core.bbd04c23a4fa3c72-cgu.0.rcgu.o)
                0xffff80004022648c                core::num::flt2dec::strategy::grisu::cached_power
 .text._ZN4core3num7flt2dec8strategy5grisu12format_exact17h3031cc90cbc6556cE
                0xffff800040226500       0x90 bin/obj/rslib.a(core-dca77d77b03929cc.core.bbd04c23a4fa3c72-cgu.0.rcgu.o)
                0xffff800040226500                core::num::flt2dec::strategy::grisu::format_exact
 .text._ZN4core3num7flt2dec8strategy5grisu15format_shortest17h9ac3bdd8dece0129E
                0xffff800040226590       0x7c bin/obj/rslib.a(core-dca77d77b03929cc.core.bbd04c23a4fa3c72-cgu.0.rcgu.o)
                0xffff800040226590                core::num::flt2dec::strategy::grisu::format_shortest
 .text._ZN4core3num7flt2dec8strategy5grisu16format_exact_opt14possibly_round17h70bdfbad4a1abf10E
                0xffff80004022660c      0x228 bin/obj/rslib.a(core-dca77d77b03929cc.core.bbd04c23a4fa3c72-cgu.0.rcgu.o)
 .text._ZN4core3num7flt2dec8strategy5grisu16format_exact_opt17h06f3a25a68884b5fE
                0xffff800040226834      0x384 bin/obj/rslib.a(core-dca77d77b03929cc.core.bbd04c23a4fa3c72-cgu.0.rcgu.o)
                0xffff800040226834                core::num::flt2dec::strategy::grisu::format_exact_opt
 .text._ZN4core3num7flt2dec8strategy5grisu19format_shortest_opt17h95eed90a074fabc8E
                0xffff800040226bb8      0x5e0 bin/obj/rslib.a(core-dca77d77b03929cc.core.bbd04c23a4fa3c72-cgu.0.rcgu.o)
                0xffff800040226bb8                core::num::flt2dec::strategy::grisu::format_shortest_opt
 .text._ZN4core3num7flt2dec8strategy6dragon12format_exact17h2d86c5bd5ee2dfdcE
                0xffff800040227198      0xa04 bin/obj/rslib.a(core-dca77d77b03929cc.core.bbd04c23a4fa3c72-cgu.0.rcgu.o)
                0xffff800040227198                core::num::flt2dec::strategy::dragon::format_exact
 .text._ZN4core3num7flt2dec8strategy6dragon15format_shortest17hbf9e63cd6c7f3351E
                0xffff800040227b9c      0xb9c bin/obj/rslib.a(core-dca77d77b03929cc.core.bbd04c23a4fa3c72-cgu.0.rcgu.o)
                0xffff800040227b9c                core::num::flt2dec::strategy::dragon::format_shortest
 .text._ZN4core3num7flt2dec8strategy6dragon9mul_pow1017h1db9a6422b51289cE
                0xffff800040228738      0x1e8 bin/obj/rslib.a(core-dca77d77b03929cc.core.bbd04c23a4fa3c72-cgu.0.rcgu.o)
                0xffff800040228738                core::num::flt2dec::strategy::dragon::mul_pow10
 .text.unlikely._ZN4core3num8int_sqrt27panic_for_negative_argument17h33a7e504fa9f917aE
                0xffff800040228920       0x34 bin/obj/rslib.a(core-dca77d77b03929cc.core.bbd04c23a4fa3c72-cgu.0.rcgu.o)
                0xffff800040228920                core::num::int_sqrt::panic_for_negative_argument
 .text._ZN4core3num9diy_float2Fp12normalize_to17he84959c4fb326ec8E
                0xffff800040228954       0x80 bin/obj/rslib.a(core-dca77d77b03929cc.core.bbd04c23a4fa3c72-cgu.0.rcgu.o)
                0xffff800040228954                core::num::diy_float::Fp::normalize_to
 .text.unlikely._ZN4core3num9int_log1030panic_for_nonpositive_argument17hda7ee47326df54a2E
                0xffff8000402289d4       0x34 bin/obj/rslib.a(core-dca77d77b03929cc.core.bbd04c23a4fa3c72-cgu.0.rcgu.o)
                0xffff8000402289d4                core::num::int_log10::panic_for_nonpositive_argument
 .text.unlikely._ZN4core3str16slice_error_fail17h0dfe4860dd14f266E
                0xffff800040228a08        0xc bin/obj/rslib.a(core-dca77d77b03929cc.core.bbd04c23a4fa3c72-cgu.0.rcgu.o)
                0xffff800040228a08                core::str::slice_error_fail
 .text.unlikely._ZN4core3str19slice_error_fail_ct17h6cde612da549c351E
                0xffff800040228a14       0x34 bin/obj/rslib.a(core-dca77d77b03929cc.core.bbd04c23a4fa3c72-cgu.0.rcgu.o)
                0xffff800040228a14                core::str::slice_error_fail_ct
 .text._ZN4core3str19slice_error_fail_rt17hdef2de376b37c97fE
                0xffff800040228a48      0x26c bin/obj/rslib.a(core-dca77d77b03929cc.core.bbd04c23a4fa3c72-cgu.0.rcgu.o)
                0xffff800040228a48                core::str::slice_error_fail_rt
 .text._ZN4core3str21_$LT$impl$u20$str$GT$12escape_debug17h4b12088bc35e1e19E
                0xffff800040228cb4       0xec bin/obj/rslib.a(core-dca77d77b03929cc.core.bbd04c23a4fa3c72-cgu.0.rcgu.o)
                0xffff800040228cb4                core::str::<impl str>::escape_debug
 .text._ZN4core3str21_$LT$impl$u20$str$GT$12substr_range17h0f1ef55950cbd311E
                0xffff800040228da0       0x2c bin/obj/rslib.a(core-dca77d77b03929cc.core.bbd04c23a4fa3c72-cgu.0.rcgu.o)
                0xffff800040228da0                core::str::<impl str>::substr_range
 .text._ZN4core3str21_$LT$impl$u20$str$GT$13from_utf8_mut17h59813a929d4e92ecE
                0xffff800040228dcc        0x4 bin/obj/rslib.a(core-dca77d77b03929cc.core.bbd04c23a4fa3c72-cgu.0.rcgu.o)
                0xffff800040228dcc                core::str::<impl str>::from_utf8_mut
 .text._ZN4core3str21_$LT$impl$u20$str$GT$22split_at_mut_unchecked17h7cb148149252da29E
                0xffff800040228dd0       0x14 bin/obj/rslib.a(core-dca77d77b03929cc.core.bbd04c23a4fa3c72-cgu.0.rcgu.o)
                0xffff800040228dd0                core::str::<impl str>::split_at_mut_unchecked
 .text._ZN4core3str21_$LT$impl$u20$str$GT$9from_utf817he4f9d5634b42488bE
                0xffff800040228de4        0x4 bin/obj/rslib.a(core-dca77d77b03929cc.core.bbd04c23a4fa3c72-cgu.0.rcgu.o)
                0xffff800040228de4                core::str::<impl str>::from_utf8
 .text._ZN4core3str5count14do_count_chars17h2b1523ba69ced03dE
                0xffff800040228de8      0x7b4 bin/obj/rslib.a(core-dca77d77b03929cc.core.bbd04c23a4fa3c72-cgu.0.rcgu.o)
                0xffff800040228de8                core::str::count::do_count_chars
 .text._ZN4core3str5count23char_count_general_case17hdb77dd78adbb4252E
                0xffff80004022959c      0x440 bin/obj/rslib.a(core-dca77d77b03929cc.core.bbd04c23a4fa3c72-cgu.0.rcgu.o)
                0xffff80004022959c                core::str::count::char_count_general_case
 .text.unlikely._ZN4core3str6traits23str_index_overflow_fail17h19cce56c90edc887E
                0xffff8000402299dc       0x34 bin/obj/rslib.a(core-dca77d77b03929cc.core.bbd04c23a4fa3c72-cgu.0.rcgu.o)
                0xffff8000402299dc                core::str::traits::str_index_overflow_fail
 .text._ZN4core3str7pattern11StrSearcher3new17h9981ab61138c7f6aE
                0xffff800040229a10      0xb7c bin/obj/rslib.a(core-dca77d77b03929cc.core.bbd04c23a4fa3c72-cgu.0.rcgu.o)
                0xffff800040229a10                core::str::pattern::StrSearcher::new
 .text._ZN4core3str8converts13from_utf8_mut17h629da4420c594d4dE
                0xffff80004022a58c      0x270 bin/obj/rslib.a(core-dca77d77b03929cc.core.bbd04c23a4fa3c72-cgu.0.rcgu.o)
                0xffff80004022a58c                core::str::converts::from_utf8_mut
 .text._ZN4core3str8converts9from_utf817h67b10b1eb55d1416E
                0xffff80004022a7fc      0x270 bin/obj/rslib.a(core-dca77d77b03929cc.core.bbd04c23a4fa3c72-cgu.0.rcgu.o)
                0xffff80004022a7fc                core::str::converts::from_utf8
 .text.unlikely._ZN4core4cell22panic_already_borrowed17h29b04afb5f27b777E
                0xffff80004022aa6c        0xc bin/obj/rslib.a(core-dca77d77b03929cc.core.bbd04c23a4fa3c72-cgu.0.rcgu.o)
                0xffff80004022aa6c                core::cell::panic_already_borrowed
 .text.unlikely._ZN4core4cell22panic_already_borrowed8do_panic7runtime17h16c9265e5353d45dE
                0xffff80004022aa78       0x44 bin/obj/rslib.a(core-dca77d77b03929cc.core.bbd04c23a4fa3c72-cgu.0.rcgu.o)
                0xffff80004022aa78                core::cell::panic_already_borrowed::do_panic::runtime
 .text.unlikely._ZN4core4cell30panic_already_mutably_borrowed17h60f3fd62f8e25c0cE
                0xffff80004022aabc        0xc bin/obj/rslib.a(core-dca77d77b03929cc.core.bbd04c23a4fa3c72-cgu.0.rcgu.o)
                0xffff80004022aabc                core::cell::panic_already_mutably_borrowed
 .text.unlikely._ZN4core4cell30panic_already_mutably_borrowed8do_panic7runtime17h3e972106a6e11420E
                0xffff80004022aac8       0x44 bin/obj/rslib.a(core-dca77d77b03929cc.core.bbd04c23a4fa3c72-cgu.0.rcgu.o)
                0xffff80004022aac8                core::cell::panic_already_mutably_borrowed::do_panic::runtime
 .text.unlikely._ZN4core4cell4lazy14panic_poisoned17heee5ca312b9ab2b4E
                0xffff80004022ab0c       0x38 bin/obj/rslib.a(core-dca77d77b03929cc.core.bbd04c23a4fa3c72-cgu.0.rcgu.o)
                0xffff80004022ab0c                core::cell::lazy::panic_poisoned
 .text.unlikely._ZN4core4char7methods15encode_utf8_raw8do_panic7runtime17h3126a7097291abceE
                0xffff80004022ab44       0x6c bin/obj/rslib.a(core-dca77d77b03929cc.core.bbd04c23a4fa3c72-cgu.0.rcgu.o)
                0xffff80004022ab44                core::char::methods::encode_utf8_raw::do_panic::runtime
 .text.unlikely._ZN4core4char7methods16encode_utf16_raw8do_panic7runtime17h252e37441bc3de94E
                0xffff80004022abb0       0x6c bin/obj/rslib.a(core-dca77d77b03929cc.core.bbd04c23a4fa3c72-cgu.0.rcgu.o)
                0xffff80004022abb0                core::char::methods::encode_utf16_raw::do_panic::runtime
 .text._ZN4core4char7methods22_$LT$impl$u20$char$GT$16escape_debug_ext17h2712871fe97bdf6fE
                0xffff80004022ac1c      0x2d0 bin/obj/rslib.a(core-dca77d77b03929cc.core.bbd04c23a4fa3c72-cgu.0.rcgu.o)
 .text.unlikely._ZN4core4wtf816slice_error_fail17hdcd1a3e6c85c3b59E
                0xffff80004022aeec       0x8c bin/obj/rslib.a(core-dca77d77b03929cc.core.bbd04c23a4fa3c72-cgu.0.rcgu.o)
                0xffff80004022aeec                core::wtf8::slice_error_fail
 .text._ZN4core5alloc6layout6Layout19is_size_align_valid17hacbce6d9b2b9d4f0E
                0xffff80004022af78       0x20 bin/obj/rslib.a(core-dca77d77b03929cc.core.bbd04c23a4fa3c72-cgu.0.rcgu.o)
                0xffff80004022af78                core::alloc::layout::Layout::is_size_align_valid
 .text._ZN4core5ascii14escape_default17h9c57be41f66be496E
                0xffff80004022af98       0x74 bin/obj/rslib.a(core-dca77d77b03929cc.core.bbd04c23a4fa3c72-cgu.0.rcgu.o)
                0xffff80004022af98                core::ascii::escape_default
 .text.unlikely._ZN4core5slice29_$LT$impl$u20$$u5b$T$u5d$$GT$15copy_from_slice17len_mismatch_fail17h9544aa5fd13c64d5E
                0xffff80004022b00c       0x18 bin/obj/rslib.a(core-dca77d77b03929cc.core.bbd04c23a4fa3c72-cgu.0.rcgu.o)
                0xffff80004022b00c                core::slice::<impl [T]>::copy_from_slice::len_mismatch_fail
 .text.unlikely._ZN4core5slice29_$LT$impl$u20$$u5b$T$u5d$$GT$15copy_from_slice17len_mismatch_fail8do_panic7runtime17h824bd876139b05e6E
                0xffff80004022b024       0x54 bin/obj/rslib.a(core-dca77d77b03929cc.core.bbd04c23a4fa3c72-cgu.0.rcgu.o)
                0xffff80004022b024                core::slice::<impl [T]>::copy_from_slice::len_mismatch_fail::do_panic::runtime
 .text._ZN4core5slice29_$LT$impl$u20$$u5b$T$u5d$$GT$16align_to_offsets3gcd17h22a27be419f37cc3E
                0xffff80004022b078       0x24 bin/obj/rslib.a(core-dca77d77b03929cc.core.bbd04c23a4fa3c72-cgu.0.rcgu.o)
                0xffff80004022b078                core::slice::<impl [T]>::align_to_offsets::gcd
 .text.unlikely._ZN4core5slice4sort6shared9smallsort22panic_on_ord_violation17h96ba4dcb7a62ec01E
                0xffff80004022b09c       0x38 bin/obj/rslib.a(core-dca77d77b03929cc.core.bbd04c23a4fa3c72-cgu.0.rcgu.o)
                0xffff80004022b09c                core::slice::sort::shared::smallsort::panic_on_ord_violation
 .text._ZN4core5slice4sort6stable5drift11sqrt_approx17hf72b4b1f25ee3a1fE
                0xffff80004022b0d4       0x2c bin/obj/rslib.a(core-dca77d77b03929cc.core.bbd04c23a4fa3c72-cgu.0.rcgu.o)
                0xffff80004022b0d4                core::slice::sort::stable::drift::sqrt_approx
 .text._ZN4core5slice5index16into_slice_range17h4e4f81d850478c59E
                0xffff80004022b100       0xc8 bin/obj/rslib.a(core-dca77d77b03929cc.core.bbd04c23a4fa3c72-cgu.0.rcgu.o)
                0xffff80004022b100                core::slice::index::into_slice_range
 .text.unlikely._ZN4core5slice5index16slice_index_fail17hf6dd4a5d97b8b298E
                0xffff80004022b1c8       0x44 bin/obj/rslib.a(core-dca77d77b03929cc.core.bbd04c23a4fa3c72-cgu.0.rcgu.o)
                0xffff80004022b1c8                core::slice::index::slice_index_fail
 .text.unlikely._ZN4core5slice5index16slice_index_fail8do_panic7runtime17h2c1001ca9edf392cE
                0xffff80004022b20c       0x50 bin/obj/rslib.a(core-dca77d77b03929cc.core.bbd04c23a4fa3c72-cgu.0.rcgu.o)
                0xffff80004022b20c                core::slice::index::slice_index_fail::do_panic::runtime
 .text.unlikely._ZN4core5slice5index16slice_index_fail8do_panic7runtime17hc74f5afeb3957d14E
                0xffff80004022b25c       0x50 bin/obj/rslib.a(core-dca77d77b03929cc.core.bbd04c23a4fa3c72-cgu.0.rcgu.o)
                0xffff80004022b25c                core::slice::index::slice_index_fail::do_panic::runtime
                0xffff80004022b25c                core::slice::index::slice_index_fail::do_panic::runtime
 .text.unlikely._ZN4core5slice5index16slice_index_fail8do_panic7runtime17he0d6622bfe3db930E
                0xffff80004022b2ac       0x50 bin/obj/rslib.a(core-dca77d77b03929cc.core.bbd04c23a4fa3c72-cgu.0.rcgu.o)
                0xffff80004022b2ac                core::slice::index::slice_index_fail::do_panic::runtime
 .text._ZN4core5slice6memchr14memchr_aligned17h7ead5f3755b1e32cE
                0xffff80004022b2fc       0xdc bin/obj/rslib.a(core-dca77d77b03929cc.core.bbd04c23a4fa3c72-cgu.0.rcgu.o)
                0xffff80004022b2fc                core::slice::memchr::memchr_aligned
 .text._ZN4core5slice6memchr7memrchr17h8006d9875623a4c6E
                0xffff80004022b3d8      0x128 bin/obj/rslib.a(core-dca77d77b03929cc.core.bbd04c23a4fa3c72-cgu.0.rcgu.o)
                0xffff80004022b3d8                core::slice::memchr::memrchr
 .text.unlikely._ZN4core6option13expect_failed17h3fe519c7a23826e5E
                0xffff80004022b500       0x48 bin/obj/rslib.a(core-dca77d77b03929cc.core.bbd04c23a4fa3c72-cgu.0.rcgu.o)
                0xffff80004022b500                core::option::expect_failed
 .text.unlikely._ZN4core6option13unwrap_failed17h8e8df245a89ec146E
                0xffff80004022b548       0x1c bin/obj/rslib.a(core-dca77d77b03929cc.core.bbd04c23a4fa3c72-cgu.0.rcgu.o)
                0xffff80004022b548                core::option::unwrap_failed
 .text.unlikely._ZN4core6result13unwrap_failed17hed39391ab9545162E
                0xffff80004022b564       0x5c bin/obj/rslib.a(core-dca77d77b03929cc.core.bbd04c23a4fa3c72-cgu.0.rcgu.o)
                0xffff80004022b564                core::result::unwrap_failed
 .text._ZN4core7unicode12unicode_data10alphabetic11lookup_slow17h973be55d11aac931E
                0xffff80004022b5c0      0x108 bin/obj/rslib.a(core-dca77d77b03929cc.core.bbd04c23a4fa3c72-cgu.0.rcgu.o)
                0xffff80004022b5c0                core::unicode::unicode_data::alphabetic::lookup_slow
 .text._ZN4core7unicode12unicode_data11conversions8to_lower17h8595194a923028dcE
                0xffff80004022b6c8      0x188 bin/obj/rslib.a(core-dca77d77b03929cc.core.bbd04c23a4fa3c72-cgu.0.rcgu.o)
                0xffff80004022b6c8                core::unicode::unicode_data::conversions::to_lower
 .text._ZN4core7unicode12unicode_data11conversions8to_upper17h9e13850ebc1d2132E
                0xffff80004022b850      0x1b4 bin/obj/rslib.a(core-dca77d77b03929cc.core.bbd04c23a4fa3c72-cgu.0.rcgu.o)
                0xffff80004022b850                core::unicode::unicode_data::conversions::to_upper
 .text._ZN4core7unicode12unicode_data14case_ignorable11lookup_slow17h20a6857f2e80acc9E
                0xffff80004022ba04      0x10c bin/obj/rslib.a(core-dca77d77b03929cc.core.bbd04c23a4fa3c72-cgu.0.rcgu.o)
                0xffff80004022ba04                core::unicode::unicode_data::case_ignorable::lookup_slow
 .text._ZN4core7unicode12unicode_data15grapheme_extend11lookup_slow17h297247f3297bb779E
                0xffff80004022bb10      0x108 bin/obj/rslib.a(core-dca77d77b03929cc.core.bbd04c23a4fa3c72-cgu.0.rcgu.o)
                0xffff80004022bb10                core::unicode::unicode_data::grapheme_extend::lookup_slow
 .text._ZN4core7unicode12unicode_data1n11lookup_slow17he45cfa250763bf33E
                0xffff80004022bc18      0x108 bin/obj/rslib.a(core-dca77d77b03929cc.core.bbd04c23a4fa3c72-cgu.0.rcgu.o)
                0xffff80004022bc18                core::unicode::unicode_data::n::lookup_slow
 .text._ZN4core7unicode12unicode_data5cased11lookup_slow17h2b6625c1dd01bfa6E
                0xffff80004022bd20       0xf4 bin/obj/rslib.a(core-dca77d77b03929cc.core.bbd04c23a4fa3c72-cgu.0.rcgu.o)
                0xffff80004022bd20                core::unicode::unicode_data::cased::lookup_slow
 .text._ZN4core7unicode12unicode_data9lowercase6lookup17h98bac80c5438d997E
                0xffff80004022be14      0x12c bin/obj/rslib.a(core-dca77d77b03929cc.core.bbd04c23a4fa3c72-cgu.0.rcgu.o)
                0xffff80004022be14                core::unicode::unicode_data::lowercase::lookup
 .text._ZN4core7unicode12unicode_data9uppercase6lookup17h1daff1c122981500E
                0xffff80004022bf40      0x12c bin/obj/rslib.a(core-dca77d77b03929cc.core.bbd04c23a4fa3c72-cgu.0.rcgu.o)
                0xffff80004022bf40                core::unicode::unicode_data::uppercase::lookup
 .text._ZN4core7unicode9printable12is_printable17ha337e908077d30bcE
                0xffff80004022c06c      0x2f4 bin/obj/rslib.a(core-dca77d77b03929cc.core.bbd04c23a4fa3c72-cgu.0.rcgu.o)
                0xffff80004022c06c                core::unicode::printable::is_printable
 .text.unlikely._ZN4core9panicking11panic_const23panic_const_div_by_zero17h9e859f64863b96a5E
                0xffff80004022c360       0x34 bin/obj/rslib.a(core-dca77d77b03929cc.core.bbd04c23a4fa3c72-cgu.0.rcgu.o)
                0xffff80004022c360                core::panicking::panic_const::panic_const_div_by_zero
 .text.unlikely._ZN4core9panicking11panic_const23panic_const_gen_fn_none17h6ccebbb5ce514529E
                0xffff80004022c394       0x34 bin/obj/rslib.a(core-dca77d77b03929cc.core.bbd04c23a4fa3c72-cgu.0.rcgu.o)
                0xffff80004022c394                core::panicking::panic_const::panic_const_gen_fn_none
 .text.unlikely._ZN4core9panicking11panic_const23panic_const_rem_by_zero17hce913302065341e9E
                0xffff80004022c3c8       0x34 bin/obj/rslib.a(core-dca77d77b03929cc.core.bbd04c23a4fa3c72-cgu.0.rcgu.o)
                0xffff80004022c3c8                core::panicking::panic_const::panic_const_rem_by_zero
 .text.unlikely._ZN4core9panicking11panic_const24panic_const_add_overflow17hd293c11264a8e77cE
                0xffff80004022c3fc       0x34 bin/obj/rslib.a(core-dca77d77b03929cc.core.bbd04c23a4fa3c72-cgu.0.rcgu.o)
                0xffff80004022c3fc                core::panicking::panic_const::panic_const_add_overflow
 .text.unlikely._ZN4core9panicking11panic_const24panic_const_div_overflow17h3656741d77f2b7c1E
                0xffff80004022c430       0x34 bin/obj/rslib.a(core-dca77d77b03929cc.core.bbd04c23a4fa3c72-cgu.0.rcgu.o)
                0xffff80004022c430                core::panicking::panic_const::panic_const_div_overflow
 .text.unlikely._ZN4core9panicking11panic_const24panic_const_mul_overflow17h2bf1bc6da2f3ca97E
                0xffff80004022c464       0x34 bin/obj/rslib.a(core-dca77d77b03929cc.core.bbd04c23a4fa3c72-cgu.0.rcgu.o)
                0xffff80004022c464                core::panicking::panic_const::panic_const_mul_overflow
 .text.unlikely._ZN4core9panicking11panic_const24panic_const_neg_overflow17h3720953546ec262aE
                0xffff80004022c498       0x34 bin/obj/rslib.a(core-dca77d77b03929cc.core.bbd04c23a4fa3c72-cgu.0.rcgu.o)
                0xffff80004022c498                core::panicking::panic_const::panic_const_neg_overflow
 .text.unlikely._ZN4core9panicking11panic_const24panic_const_rem_overflow17h6b5e2675730c6ea6E
                0xffff80004022c4cc       0x34 bin/obj/rslib.a(core-dca77d77b03929cc.core.bbd04c23a4fa3c72-cgu.0.rcgu.o)
                0xffff80004022c4cc                core::panicking::panic_const::panic_const_rem_overflow
 .text.unlikely._ZN4core9panicking11panic_const24panic_const_shl_overflow17h471dbca539834de1E
                0xffff80004022c500       0x34 bin/obj/rslib.a(core-dca77d77b03929cc.core.bbd04c23a4fa3c72-cgu.0.rcgu.o)
                0xffff80004022c500                core::panicking::panic_const::panic_const_shl_overflow
 .text.unlikely._ZN4core9panicking11panic_const24panic_const_shr_overflow17h079e63ad07d18028E
                0xffff80004022c534       0x34 bin/obj/rslib.a(core-dca77d77b03929cc.core.bbd04c23a4fa3c72-cgu.0.rcgu.o)
                0xffff80004022c534                core::panicking::panic_const::panic_const_shr_overflow
 .text.unlikely._ZN4core9panicking11panic_const24panic_const_sub_overflow17h330dd311a1010209E
                0xffff80004022c568       0x34 bin/obj/rslib.a(core-dca77d77b03929cc.core.bbd04c23a4fa3c72-cgu.0.rcgu.o)
                0xffff80004022c568                core::panicking::panic_const::panic_const_sub_overflow
 .text.unlikely._ZN4core9panicking11panic_const28panic_const_async_fn_resumed17hdad24b4d5f504004E
                0xffff80004022c59c       0x34 bin/obj/rslib.a(core-dca77d77b03929cc.core.bbd04c23a4fa3c72-cgu.0.rcgu.o)
                0xffff80004022c59c                core::panicking::panic_const::panic_const_async_fn_resumed
 .text.unlikely._ZN4core9panicking11panic_const28panic_const_gen_fn_none_drop17h87d216fe7af9474bE
                0xffff80004022c5d0       0x34 bin/obj/rslib.a(core-dca77d77b03929cc.core.bbd04c23a4fa3c72-cgu.0.rcgu.o)
                0xffff80004022c5d0                core::panicking::panic_const::panic_const_gen_fn_none_drop
 .text.unlikely._ZN4core9panicking11panic_const29panic_const_coroutine_resumed17hf9512d54125bd79fE
                0xffff80004022c604       0x34 bin/obj/rslib.a(core-dca77d77b03929cc.core.bbd04c23a4fa3c72-cgu.0.rcgu.o)
                0xffff80004022c604                core::panicking::panic_const::panic_const_coroutine_resumed
 .text.unlikely._ZN4core9panicking11panic_const29panic_const_gen_fn_none_panic17hcde5308afaf4a3e4E
                0xffff80004022c638       0x34 bin/obj/rslib.a(core-dca77d77b03929cc.core.bbd04c23a4fa3c72-cgu.0.rcgu.o)
                0xffff80004022c638                core::panicking::panic_const::panic_const_gen_fn_none_panic
 .text.unlikely._ZN4core9panicking11panic_const32panic_const_async_gen_fn_resumed17h9e468060d5f1f0c9E
                0xffff80004022c66c       0x34 bin/obj/rslib.a(core-dca77d77b03929cc.core.bbd04c23a4fa3c72-cgu.0.rcgu.o)
                0xffff80004022c66c                core::panicking::panic_const::panic_const_async_gen_fn_resumed
 .text.unlikely._ZN4core9panicking11panic_const33panic_const_async_fn_resumed_drop17h025c12a8592ab346E
                0xffff80004022c6a0       0x34 bin/obj/rslib.a(core-dca77d77b03929cc.core.bbd04c23a4fa3c72-cgu.0.rcgu.o)
                0xffff80004022c6a0                core::panicking::panic_const::panic_const_async_fn_resumed_drop
 .text.unlikely._ZN4core9panicking11panic_const34panic_const_async_fn_resumed_panic17h807de21dfdf36c09E
                0xffff80004022c6d4       0x34 bin/obj/rslib.a(core-dca77d77b03929cc.core.bbd04c23a4fa3c72-cgu.0.rcgu.o)
                0xffff80004022c6d4                core::panicking::panic_const::panic_const_async_fn_resumed_panic
 .text.unlikely._ZN4core9panicking11panic_const34panic_const_coroutine_resumed_drop17h301c9903b6001997E
                0xffff80004022c708       0x34 bin/obj/rslib.a(core-dca77d77b03929cc.core.bbd04c23a4fa3c72-cgu.0.rcgu.o)
                0xffff80004022c708                core::panicking::panic_const::panic_const_coroutine_resumed_drop
 .text.unlikely._ZN4core9panicking11panic_const35panic_const_coroutine_resumed_panic17h197fc7f28fc1b4beE
                0xffff80004022c73c       0x34 bin/obj/rslib.a(core-dca77d77b03929cc.core.bbd04c23a4fa3c72-cgu.0.rcgu.o)
                0xffff80004022c73c                core::panicking::panic_const::panic_const_coroutine_resumed_panic
 .text.unlikely._ZN4core9panicking11panic_const37panic_const_async_gen_fn_resumed_drop17h7736250401768d48E
                0xffff80004022c770       0x34 bin/obj/rslib.a(core-dca77d77b03929cc.core.bbd04c23a4fa3c72-cgu.0.rcgu.o)
                0xffff80004022c770                core::panicking::panic_const::panic_const_async_gen_fn_resumed_drop
 .text.unlikely._ZN4core9panicking11panic_const38panic_const_async_gen_fn_resumed_panic17h1ef3106d067d26deE
                0xffff80004022c7a4       0x34 bin/obj/rslib.a(core-dca77d77b03929cc.core.bbd04c23a4fa3c72-cgu.0.rcgu.o)
                0xffff80004022c7a4                core::panicking::panic_const::panic_const_async_gen_fn_resumed_panic
 .text.unlikely._ZN4core9panicking13assert_failed17h709a0c217cdcdb9cE
                0xffff80004022c7d8       0x1c bin/obj/rslib.a(core-dca77d77b03929cc.core.bbd04c23a4fa3c72-cgu.0.rcgu.o)
                0xffff80004022c7d8                core::panicking::assert_failed
 .text.unlikely._ZN4core9panicking13assert_failed17hbc3e10814ab4836dE
                0xffff80004022c7f4       0x1c bin/obj/rslib.a(core-dca77d77b03929cc.core.bbd04c23a4fa3c72-cgu.0.rcgu.o)
                0xffff80004022c7f4                core::panicking::assert_failed
 .text.unlikely._ZN4core9panicking13assert_failed17hd5a518c0f7e88519E
                0xffff80004022c810       0x1c bin/obj/rslib.a(core-dca77d77b03929cc.core.bbd04c23a4fa3c72-cgu.0.rcgu.o)
                0xffff80004022c810                core::panicking::assert_failed
 .text.unlikely._ZN4core9panicking14panic_nounwind17h577093eebf318476E
                0xffff80004022c82c       0x3c bin/obj/rslib.a(core-dca77d77b03929cc.core.bbd04c23a4fa3c72-cgu.0.rcgu.o)
                0xffff80004022c82c                core::panicking::panic_nounwind
 .text.unlikely._ZN4core9panicking15const_panic_fmt17h77cff2874c609df3E
                0xffff80004022c868       0x64 bin/obj/rslib.a(core-dca77d77b03929cc.core.bbd04c23a4fa3c72-cgu.0.rcgu.o)
                0xffff80004022c868                core::panicking::const_panic_fmt
 .text.unlikely._ZN4core9panicking16panic_in_cleanup17h031f8596f053436cE
                0xffff80004022c8cc       0x18 bin/obj/rslib.a(core-dca77d77b03929cc.core.bbd04c23a4fa3c72-cgu.0.rcgu.o)
                0xffff80004022c8cc                core::panicking::panic_in_cleanup
 .text.unlikely._ZN4core9panicking18panic_bounds_check17he29bb21320f32a38E
                0xffff80004022c8e4       0x50 bin/obj/rslib.a(core-dca77d77b03929cc.core.bbd04c23a4fa3c72-cgu.0.rcgu.o)
                0xffff80004022c8e4                core::panicking::panic_bounds_check
 .text.unlikely._ZN4core9panicking18panic_nounwind_fmt17h7ec0765aa373c1a4E
                0xffff80004022c934       0x44 bin/obj/rslib.a(core-dca77d77b03929cc.core.bbd04c23a4fa3c72-cgu.0.rcgu.o)
                0xffff80004022c934                core::panicking::panic_nounwind_fmt
 .text.unlikely._ZN4core9panicking19assert_failed_inner17h09d676bdb30b5f2cE
                0xffff80004022c978       0xec bin/obj/rslib.a(core-dca77d77b03929cc.core.bbd04c23a4fa3c72-cgu.0.rcgu.o)
                0xffff80004022c978                core::panicking::assert_failed_inner
 .text.unlikely._ZN4core9panicking19panic_cannot_unwind17hfc8eddcb7354b1a5E
                0xffff80004022ca64       0x18 bin/obj/rslib.a(core-dca77d77b03929cc.core.bbd04c23a4fa3c72-cgu.0.rcgu.o)
                0xffff80004022ca64                core::panicking::panic_cannot_unwind
 .text.unlikely._ZN4core9panicking26panic_nounwind_nobacktrace17h871c9c424a7e26e2E
                0xffff80004022ca7c       0x3c bin/obj/rslib.a(core-dca77d77b03929cc.core.bbd04c23a4fa3c72-cgu.0.rcgu.o)
                0xffff80004022ca7c                core::panicking::panic_nounwind_nobacktrace
 .text.unlikely._ZN4core9panicking30panic_null_pointer_dereference17hdf2bd4a2edf063f2E
                0xffff80004022cab8       0x38 bin/obj/rslib.a(core-dca77d77b03929cc.core.bbd04c23a4fa3c72-cgu.0.rcgu.o)
                0xffff80004022cab8                core::panicking::panic_null_pointer_dereference
 .text.unlikely._ZN4core9panicking31panic_invalid_enum_construction17h43c120b8acdf230aE
                0xffff80004022caf0       0x48 bin/obj/rslib.a(core-dca77d77b03929cc.core.bbd04c23a4fa3c72-cgu.0.rcgu.o)
                0xffff80004022caf0                core::panicking::panic_invalid_enum_construction
 .text.unlikely._ZN4core9panicking36panic_misaligned_pointer_dereference17hd141758b151b3bc6E
                0xffff80004022cb38       0x50 bin/obj/rslib.a(core-dca77d77b03929cc.core.bbd04c23a4fa3c72-cgu.0.rcgu.o)
                0xffff80004022cb38                core::panicking::panic_misaligned_pointer_dereference
 .text.unlikely._ZN4core9panicking5panic17h23e617832b746870E
                0xffff80004022cb88       0x34 bin/obj/rslib.a(core-dca77d77b03929cc.core.bbd04c23a4fa3c72-cgu.0.rcgu.o)
                0xffff80004022cb88                core::panicking::panic
 .text.unlikely._ZN4core9panicking9panic_fmt17h36bd9ed31f3bd570E
                0xffff80004022cbbc       0x20 bin/obj/rslib.a(core-dca77d77b03929cc.core.bbd04c23a4fa3c72-cgu.0.rcgu.o)
                0xffff80004022cbbc                core::panicking::panic_fmt
 .text._ZN50_$LT$u16$u20$as$u20$core..num..bignum..FullOps$GT$12full_div_rem17h3d8a2afe85a1bf81E
                0xffff80004022cbdc       0x34 bin/obj/rslib.a(core-dca77d77b03929cc.core.bbd04c23a4fa3c72-cgu.0.rcgu.o)
                0xffff80004022cbdc                <u16 as core::num::bignum::FullOps>::full_div_rem
 .text._ZN50_$LT$u32$u20$as$u20$core..num..bignum..FullOps$GT$12full_div_rem17hb9614d111998a11cE
                0xffff80004022cc10       0x34 bin/obj/rslib.a(core-dca77d77b03929cc.core.bbd04c23a4fa3c72-cgu.0.rcgu.o)
                0xffff80004022cc10                <u32 as core::num::bignum::FullOps>::full_div_rem
 .text._ZN50_$LT$u64$u20$as$u20$core..num..bignum..FullOps$GT$12full_div_rem17h3b20065fc07bfd16E
                0xffff80004022cc44       0x44 bin/obj/rslib.a(core-dca77d77b03929cc.core.bbd04c23a4fa3c72-cgu.0.rcgu.o)
                0xffff80004022cc44                <u64 as core::num::bignum::FullOps>::full_div_rem
 .text._ZN52_$LT$$BP$const$u20$T$u20$as$u20$core..fmt..Debug$GT$3fmt17h6c45bfcf2db47a5fE
                0xffff80004022cc88       0xbc bin/obj/rslib.a(core-dca77d77b03929cc.core.bbd04c23a4fa3c72-cgu.0.rcgu.o)
 .text._ZN53_$LT$core..fmt..Error$u20$as$u20$core..fmt..Debug$GT$3fmt17h68559d87ab5eaa04E
                0xffff80004022cd44       0x1c bin/obj/rslib.a(core-dca77d77b03929cc.core.bbd04c23a4fa3c72-cgu.0.rcgu.o)
 .text._ZN53_$LT$core..wtf8..Wtf8$u20$as$u20$core..fmt..Debug$GT$3fmt17h71e02bcd888d2eb3E
                0xffff80004022cd60      0x230 bin/obj/rslib.a(core-dca77d77b03929cc.core.bbd04c23a4fa3c72-cgu.0.rcgu.o)
                0xffff80004022cd60                <core::wtf8::Wtf8 as core::fmt::Debug>::fmt
 .text._ZN53_$LT$core..wtf8..Wtf8$u20$as$u20$core..fmt..Debug$GT$3fmt17write_str_escaped17hedd172e6da0e5097E
                0xffff80004022cf90      0x1b4 bin/obj/rslib.a(core-dca77d77b03929cc.core.bbd04c23a4fa3c72-cgu.0.rcgu.o)
 .text._ZN54_$LT$core..any..TypeId$u20$as$u20$core..fmt..Debug$GT$3fmt17he43d19f293b8f634E
                0xffff80004022d144       0x64 bin/obj/rslib.a(core-dca77d77b03929cc.core.bbd04c23a4fa3c72-cgu.0.rcgu.o)
                0xffff80004022d144                <core::any::TypeId as core::fmt::Debug>::fmt
 .text._ZN54_$LT$core..ffi..c_void$u20$as$u20$core..fmt..Debug$GT$3fmt17h4cdeb87bbd179e76E
                0xffff80004022d1a8       0x1c bin/obj/rslib.a(core-dca77d77b03929cc.core.bbd04c23a4fa3c72-cgu.0.rcgu.o)
                0xffff80004022d1a8                <core::ffi::c_void as core::fmt::Debug>::fmt
 .text._ZN55_$LT$core..fmt..Error$u20$as$u20$core..fmt..Display$GT$3fmt17h6260d5a354758c55E
                0xffff80004022d1c4       0x14 bin/obj/rslib.a(core-dca77d77b03929cc.core.bbd04c23a4fa3c72-cgu.0.rcgu.o)
                0xffff80004022d1c4                <core::fmt::Error as core::fmt::Display>::fmt
 .text._ZN55_$LT$core..wtf8..Wtf8$u20$as$u20$core..fmt..Display$GT$3fmt17h7a2e0b9ee5a93650E
                0xffff80004022d1d8      0x1ec bin/obj/rslib.a(core-dca77d77b03929cc.core.bbd04c23a4fa3c72-cgu.0.rcgu.o)
                0xffff80004022d1d8                <core::wtf8::Wtf8 as core::fmt::Display>::fmt
 .text._ZN56_$LT$core..bstr..ByteStr$u20$as$u20$core..fmt..Debug$GT$3fmt17h2c81447f1ba74e93E
                0xffff80004022d3c4      0x294 bin/obj/rslib.a(core-dca77d77b03929cc.core.bbd04c23a4fa3c72-cgu.0.rcgu.o)
                0xffff80004022d3c4                <core::bstr::ByteStr as core::fmt::Debug>::fmt
 .text._ZN57_$LT$core..error..Request$u20$as$u20$core..fmt..Debug$GT$3fmt17h51c6e509ed9dc072E
                0xffff80004022d658       0x60 bin/obj/rslib.a(core-dca77d77b03929cc.core.bbd04c23a4fa3c72-cgu.0.rcgu.o)
                0xffff80004022d658                <core::error::Request as core::fmt::Debug>::fmt
 .text._ZN57_$LT$core..fmt..Arguments$u20$as$u20$core..fmt..Debug$GT$3fmt17hcef4054051e616efE
                0xffff80004022d6b8       0x10 bin/obj/rslib.a(core-dca77d77b03929cc.core.bbd04c23a4fa3c72-cgu.0.rcgu.o)
                0xffff80004022d6b8                <core::fmt::Arguments as core::fmt::Debug>::fmt
 .text._ZN57_$LT$core..fmt..Formatter$u20$as$u20$core..fmt..Write$GT$10write_char17hddeff23d89f7e0c3E
                0xffff80004022d6c8        0xc bin/obj/rslib.a(core-dca77d77b03929cc.core.bbd04c23a4fa3c72-cgu.0.rcgu.o)
                0xffff80004022d6c8                <core::fmt::Formatter as core::fmt::Write>::write_char
 .text._ZN57_$LT$core..time..Duration$u20$as$u20$core..fmt..Debug$GT$3fmt11fmt_decimal17hf41bc061615a5d46E
                0xffff80004022d6d4      0x56c bin/obj/rslib.a(core-dca77d77b03929cc.core.bbd04c23a4fa3c72-cgu.0.rcgu.o)
 .text._ZN57_$LT$core..time..Duration$u20$as$u20$core..fmt..Debug$GT$3fmt11fmt_decimal28_$u7b$$u7b$closure$u7d$$u7d$17hd519c97862f3e360E
                0xffff80004022dc40      0x204 bin/obj/rslib.a(core-dca77d77b03929cc.core.bbd04c23a4fa3c72-cgu.0.rcgu.o)
 .text._ZN57_$LT$core..time..Duration$u20$as$u20$core..fmt..Debug$GT$3fmt17he7a903dd33a578fbE
                0xffff80004022de44       0xe4 bin/obj/rslib.a(core-dca77d77b03929cc.core.bbd04c23a4fa3c72-cgu.0.rcgu.o)
                0xffff80004022de44                <core::time::Duration as core::fmt::Debug>::fmt
 .text._ZN58_$LT$core..bstr..ByteStr$u20$as$u20$core..fmt..Display$GT$3fmt17hc5846afe4b534330E
                0xffff80004022df28      0x514 bin/obj/rslib.a(core-dca77d77b03929cc.core.bbd04c23a4fa3c72-cgu.0.rcgu.o)
                0xffff80004022df28                <core::bstr::ByteStr as core::fmt::Display>::fmt
 .text._ZN59_$LT$core..ffi..c_str..CStr$u20$as$u20$core..fmt..Debug$GT$3fmt17h6894032a3d232673E
                0xffff80004022e43c        0x8 bin/obj/rslib.a(core-dca77d77b03929cc.core.bbd04c23a4fa3c72-cgu.0.rcgu.o)
                0xffff80004022e43c                <core::ffi::c_str::CStr as core::fmt::Debug>::fmt
 .text._ZN59_$LT$core..fmt..Arguments$u20$as$u20$core..fmt..Display$GT$3fmt17ha71d21cd4f326068E
                0xffff80004022e444       0x10 bin/obj/rslib.a(core-dca77d77b03929cc.core.bbd04c23a4fa3c72-cgu.0.rcgu.o)
                0xffff80004022e444                <core::fmt::Arguments as core::fmt::Display>::fmt
 .text._ZN59_$LT$core..str..iter..Chars$u20$as$u20$core..fmt..Debug$GT$3fmt17h5ee04521b8945abeE
                0xffff80004022e454      0x600 bin/obj/rslib.a(core-dca77d77b03929cc.core.bbd04c23a4fa3c72-cgu.0.rcgu.o)
                0xffff80004022e454                <core::str::iter::Chars as core::fmt::Debug>::fmt
 .text._ZN59_$LT$core..wtf8..EncodeWide$u20$as$u20$core..fmt..Debug$GT$3fmt17hb508e91632a50082E
                0xffff80004022ea54      0x678 bin/obj/rslib.a(core-dca77d77b03929cc.core.bbd04c23a4fa3c72-cgu.0.rcgu.o)
                0xffff80004022ea54                <core::wtf8::EncodeWide as core::fmt::Debug>::fmt
 .text._ZN59_$LT$f32$u20$as$u20$core..num..dec2flt..float..RawFloat$GT$15pow10_fast_path17h123f0cbd2cfb5314E
                0xffff80004022f0cc       0x14 bin/obj/rslib.a(core-dca77d77b03929cc.core.bbd04c23a4fa3c72-cgu.0.rcgu.o)
                0xffff80004022f0cc                <f32 as core::num::dec2flt::float::RawFloat>::pow10_fast_path
 .text._ZN59_$LT$f64$u20$as$u20$core..num..dec2flt..float..RawFloat$GT$15pow10_fast_path17he5117d81e71ad8f5E
                0xffff80004022f0e0       0x14 bin/obj/rslib.a(core-dca77d77b03929cc.core.bbd04c23a4fa3c72-cgu.0.rcgu.o)
                0xffff80004022f0e0                <f64 as core::num::dec2flt::float::RawFloat>::pow10_fast_path
 .text._ZN60_$LT$core..str..lossy..Debug$u20$as$u20$core..fmt..Debug$GT$3fmt17h4c1e1ab64240d87fE
                0xffff80004022f0f4      0x3a0 bin/obj/rslib.a(core-dca77d77b03929cc.core.bbd04c23a4fa3c72-cgu.0.rcgu.o)
                0xffff80004022f0f4                <core::str::lossy::Debug as core::fmt::Debug>::fmt
 .text._ZN60_$LT$core..task..wake..Waker$u20$as$u20$core..fmt..Debug$GT$3fmt17h2f1fe465206ade58E
                0xffff80004022f494       0xe8 bin/obj/rslib.a(core-dca77d77b03929cc.core.bbd04c23a4fa3c72-cgu.0.rcgu.o)
                0xffff80004022f494                <core::task::wake::Waker as core::fmt::Debug>::fmt
 .text._ZN62_$LT$core..alloc..AllocError$u20$as$u20$core..fmt..Display$GT$3fmt17hcf25f3758ba6c247E
                0xffff80004022f57c       0x1c bin/obj/rslib.a(core-dca77d77b03929cc.core.bbd04c23a4fa3c72-cgu.0.rcgu.o)
                0xffff80004022f57c                <core::alloc::AllocError as core::fmt::Display>::fmt
 .text._ZN62_$LT$core..cell..BorrowError$u20$as$u20$core..fmt..Display$GT$3fmt17h3efd4fe28162030bE
                0xffff80004022f598       0x14 bin/obj/rslib.a(core-dca77d77b03929cc.core.bbd04c23a4fa3c72-cgu.0.rcgu.o)
                0xffff80004022f598                <core::cell::BorrowError as core::fmt::Display>::fmt
 .text._ZN62_$LT$core..char..EscapeDebug$u20$as$u20$core..fmt..Display$GT$3fmt17h6b5028a157dfb7a2E
                0xffff80004022f5ac       0x38 bin/obj/rslib.a(core-dca77d77b03929cc.core.bbd04c23a4fa3c72-cgu.0.rcgu.o)
 .text._ZN62_$LT$core..num..bignum..Big32x40$u20$as$u20$core..cmp..Ord$GT$3cmp17h3909bdc1dfd4b2acE
                0xffff80004022f5e4       0x74 bin/obj/rslib.a(core-dca77d77b03929cc.core.bbd04c23a4fa3c72-cgu.0.rcgu.o)
                0xffff80004022f5e4                <core::num::bignum::Big32x40 as core::cmp::Ord>::cmp
 .text._ZN62_$LT$core..task..wake..Context$u20$as$u20$core..fmt..Debug$GT$3fmt17h328e7498f333fb0bE
                0xffff80004022f658       0xc4 bin/obj/rslib.a(core-dca77d77b03929cc.core.bbd04c23a4fa3c72-cgu.0.rcgu.o)
                0xffff80004022f658                <core::task::wake::Context as core::fmt::Debug>::fmt
 .text._ZN63_$LT$core..ascii..EscapeDefault$u20$as$u20$core..fmt..Debug$GT$3fmt17h31cafbff232d5b15E
                0xffff80004022f71c       0x60 bin/obj/rslib.a(core-dca77d77b03929cc.core.bbd04c23a4fa3c72-cgu.0.rcgu.o)
                0xffff80004022f71c                <core::ascii::EscapeDefault as core::fmt::Debug>::fmt
 .text._ZN63_$LT$core..net..ip_addr..IpAddr$u20$as$u20$core..fmt..Debug$GT$3fmt17h6b56b236e4dfa0efE
                0xffff80004022f77c       0x14 bin/obj/rslib.a(core-dca77d77b03929cc.core.bbd04c23a4fa3c72-cgu.0.rcgu.o)
                0xffff80004022f77c                <core::net::ip_addr::IpAddr as core::fmt::Debug>::fmt
 .text._ZN63_$LT$core..wtf8..Wtf8CodePoints$u20$as$u20$core..fmt..Debug$GT$3fmt17hd4d19c881e1fb115E
                0xffff80004022f790      0x138 bin/obj/rslib.a(core-dca77d77b03929cc.core.bbd04c23a4fa3c72-cgu.0.rcgu.o)
                0xffff80004022f790                <core::wtf8::Wtf8CodePoints as core::fmt::Debug>::fmt
 .text._ZN64_$LT$core..char..EscapeUnicode$u20$as$u20$core..fmt..Display$GT$3fmt17h87f4e997a4cab8a5E
                0xffff80004022f8c8       0x20 bin/obj/rslib.a(core-dca77d77b03929cc.core.bbd04c23a4fa3c72-cgu.0.rcgu.o)
                0xffff80004022f8c8                <core::char::EscapeUnicode as core::fmt::Display>::fmt
 .text._ZN64_$LT$core..num..bignum..Big32x40$u20$as$u20$core..fmt..Debug$GT$3fmt17haf6d0b662865953cE
                0xffff80004022f8e8      0x14c bin/obj/rslib.a(core-dca77d77b03929cc.core.bbd04c23a4fa3c72-cgu.0.rcgu.o)
                0xffff80004022f8e8                <core::num::bignum::Big32x40 as core::fmt::Debug>::fmt
 .text._ZN64_$LT$core..ops..range..RangeFull$u20$as$u20$core..fmt..Debug$GT$3fmt17h8c4ecbe9daf12a9bE
                0xffff80004022fa34       0x1c bin/obj/rslib.a(core-dca77d77b03929cc.core.bbd04c23a4fa3c72-cgu.0.rcgu.o)
                0xffff80004022fa34                <core::ops::range::RangeFull as core::fmt::Debug>::fmt
 .text._ZN65_$LT$core..ascii..EscapeDefault$u20$as$u20$core..fmt..Display$GT$3fmt17h551680a19ff913f4E
                0xffff80004022fa50       0x20 bin/obj/rslib.a(core-dca77d77b03929cc.core.bbd04c23a4fa3c72-cgu.0.rcgu.o)
                0xffff80004022fa50                <core::ascii::EscapeDefault as core::fmt::Display>::fmt
 .text._ZN65_$LT$core..cell..BorrowMutError$u20$as$u20$core..fmt..Display$GT$3fmt17hf6d8e93b49212e07E
                0xffff80004022fa70       0x14 bin/obj/rslib.a(core-dca77d77b03929cc.core.bbd04c23a4fa3c72-cgu.0.rcgu.o)
                0xffff80004022fa70                <core::cell::BorrowMutError as core::fmt::Display>::fmt
 .text._ZN65_$LT$core..net..ip_addr..IpAddr$u20$as$u20$core..fmt..Display$GT$3fmt17ha7b247bcd662990dE
                0xffff80004022fa84       0x14 bin/obj/rslib.a(core-dca77d77b03929cc.core.bbd04c23a4fa3c72-cgu.0.rcgu.o)
                0xffff80004022fa84                <core::net::ip_addr::IpAddr as core::fmt::Display>::fmt
 .text._ZN65_$LT$core..net..ip_addr..Ipv4Addr$u20$as$u20$core..fmt..Debug$GT$3fmt17h378b53e522059058E
                0xffff80004022fa98        0x4 bin/obj/rslib.a(core-dca77d77b03929cc.core.bbd04c23a4fa3c72-cgu.0.rcgu.o)
                0xffff80004022fa98                <core::net::ip_addr::Ipv4Addr as core::fmt::Debug>::fmt
 .text._ZN65_$LT$core..net..ip_addr..Ipv6Addr$u20$as$u20$core..fmt..Debug$GT$3fmt17h3d3cc24cecd7050fE
                0xffff80004022fa9c        0x4 bin/obj/rslib.a(core-dca77d77b03929cc.core.bbd04c23a4fa3c72-cgu.0.rcgu.o)
                0xffff80004022fa9c                <core::net::ip_addr::Ipv6Addr as core::fmt::Debug>::fmt
 .text._ZN65_$LT$core..str..iter..EncodeUtf16$u20$as$u20$core..fmt..Debug$GT$3fmt17h73ce07a9ab86327aE
                0xffff80004022faa0       0x60 bin/obj/rslib.a(core-dca77d77b03929cc.core.bbd04c23a4fa3c72-cgu.0.rcgu.o)
                0xffff80004022faa0                <core::str::iter::EncodeUtf16 as core::fmt::Debug>::fmt
 .text._ZN65_$LT$core..str..lossy..Utf8Chunks$u20$as$u20$core..fmt..Debug$GT$3fmt17hed9cc40614c50367E
                0xffff80004022fb00       0xcc bin/obj/rslib.a(core-dca77d77b03929cc.core.bbd04c23a4fa3c72-cgu.0.rcgu.o)
                0xffff80004022fb00                <core::str::lossy::Utf8Chunks as core::fmt::Debug>::fmt
 .text._ZN65_$LT$core..sync..atomic..AtomicI8$u20$as$u20$core..fmt..Debug$GT$3fmt17h4ad51bd43f2dc837E
                0xffff80004022fbcc        0x8 bin/obj/rslib.a(core-dca77d77b03929cc.core.bbd04c23a4fa3c72-cgu.0.rcgu.o)
                0xffff80004022fbcc                <core::sync::atomic::AtomicI8 as core::fmt::Debug>::fmt
 .text._ZN65_$LT$core..sync..atomic..AtomicU8$u20$as$u20$core..fmt..Debug$GT$3fmt17h3c62c8db7b48e2b3E
                0xffff80004022fbd4        0x8 bin/obj/rslib.a(core-dca77d77b03929cc.core.bbd04c23a4fa3c72-cgu.0.rcgu.o)
                0xffff80004022fbd4                <core::sync::atomic::AtomicU8 as core::fmt::Debug>::fmt
 .text._ZN65_$LT$core..task..wake..LocalWaker$u20$as$u20$core..fmt..Debug$GT$3fmt17h9fe6bd569bb5eb31E
                0xffff80004022fbdc       0xe8 bin/obj/rslib.a(core-dca77d77b03929cc.core.bbd04c23a4fa3c72-cgu.0.rcgu.o)
                0xffff80004022fbdc                <core::task::wake::LocalWaker as core::fmt::Debug>::fmt
 .text._ZN66_$LT$core..str..error..Utf8Error$u20$as$u20$core..fmt..Display$GT$3fmt17h970d9ad3cfc6cf1dE
                0xffff80004022fcc4       0x8c bin/obj/rslib.a(core-dca77d77b03929cc.core.bbd04c23a4fa3c72-cgu.0.rcgu.o)
                0xffff80004022fcc4                <core::str::error::Utf8Error as core::fmt::Display>::fmt
 .text._ZN66_$LT$core..sync..atomic..AtomicI16$u20$as$u20$core..fmt..Debug$GT$3fmt17hcfb8cf3bdacb8609E
                0xffff80004022fd50        0x8 bin/obj/rslib.a(core-dca77d77b03929cc.core.bbd04c23a4fa3c72-cgu.0.rcgu.o)
                0xffff80004022fd50                <core::sync::atomic::AtomicI16 as core::fmt::Debug>::fmt
 .text._ZN66_$LT$core..sync..atomic..AtomicI32$u20$as$u20$core..fmt..Debug$GT$3fmt17h6721b3cf0505a49fE
                0xffff80004022fd58       0xd4 bin/obj/rslib.a(core-dca77d77b03929cc.core.bbd04c23a4fa3c72-cgu.0.rcgu.o)
                0xffff80004022fd58                <core::sync::atomic::AtomicI32 as core::fmt::Debug>::fmt
 .text._ZN66_$LT$core..sync..atomic..AtomicI64$u20$as$u20$core..fmt..Debug$GT$3fmt17hd05e910d2a89e266E
                0xffff80004022fe2c      0x208 bin/obj/rslib.a(core-dca77d77b03929cc.core.bbd04c23a4fa3c72-cgu.0.rcgu.o)
                0xffff80004022fe2c                <core::sync::atomic::AtomicIsize as core::fmt::Debug>::fmt
                0xffff80004022fe2c                <core::sync::atomic::AtomicI64 as core::fmt::Debug>::fmt
 .text._ZN66_$LT$core..sync..atomic..AtomicU16$u20$as$u20$core..fmt..Debug$GT$3fmt17hcb239857b46a8d3aE
                0xffff800040230034        0x8 bin/obj/rslib.a(core-dca77d77b03929cc.core.bbd04c23a4fa3c72-cgu.0.rcgu.o)
                0xffff800040230034                <core::sync::atomic::AtomicU16 as core::fmt::Debug>::fmt
 .text._ZN66_$LT$core..sync..atomic..AtomicU32$u20$as$u20$core..fmt..Debug$GT$3fmt17hd793ad2cacb08615E
                0xffff80004023003c       0x28 bin/obj/rslib.a(core-dca77d77b03929cc.core.bbd04c23a4fa3c72-cgu.0.rcgu.o)
                0xffff80004023003c                <core::sync::atomic::AtomicU32 as core::fmt::Debug>::fmt
 .text._ZN66_$LT$core..sync..atomic..AtomicU64$u20$as$u20$core..fmt..Debug$GT$3fmt17h9900f5c08c07cfbcE
                0xffff800040230064        0x8 bin/obj/rslib.a(core-dca77d77b03929cc.core.bbd04c23a4fa3c72-cgu.0.rcgu.o)
                0xffff800040230064                <core::sync::atomic::AtomicU64 as core::fmt::Debug>::fmt
 .text._ZN67_$LT$core..char..TryFromCharError$u20$as$u20$core..fmt..Display$GT$3fmt17h95210c1b072744e0E
                0xffff80004023006c       0x14 bin/obj/rslib.a(core-dca77d77b03929cc.core.bbd04c23a4fa3c72-cgu.0.rcgu.o)
                0xffff80004023006c                <core::char::TryFromCharError as core::fmt::Display>::fmt
 .text._ZN67_$LT$core..net..ip_addr..Ipv4Addr$u20$as$u20$core..fmt..Display$GT$3fmt17h82091644663e0202E
                0xffff800040230080      0x170 bin/obj/rslib.a(core-dca77d77b03929cc.core.bbd04c23a4fa3c72-cgu.0.rcgu.o)
                0xffff800040230080                <core::net::ip_addr::Ipv4Addr as core::fmt::Display>::fmt
 .text._ZN67_$LT$core..net..ip_addr..Ipv6Addr$u20$as$u20$core..fmt..Display$GT$3fmt12fmt_subslice17h99c318a22db7a965E
                0xffff8000402301f0      0x10c bin/obj/rslib.a(core-dca77d77b03929cc.core.bbd04c23a4fa3c72-cgu.0.rcgu.o)
 .text._ZN67_$LT$core..net..ip_addr..Ipv6Addr$u20$as$u20$core..fmt..Display$GT$3fmt17h6773c859e6ab7ca3E
                0xffff8000402302fc      0x704 bin/obj/rslib.a(core-dca77d77b03929cc.core.bbd04c23a4fa3c72-cgu.0.rcgu.o)
                0xffff8000402302fc                <core::net::ip_addr::Ipv6Addr as core::fmt::Display>::fmt
 .text._ZN67_$LT$core..num..bignum..tests..Big8x3$u20$as$u20$core..cmp..Ord$GT$3cmp17h9241baa3af277a79E
                0xffff800040230a00       0xb4 bin/obj/rslib.a(core-dca77d77b03929cc.core.bbd04c23a4fa3c72-cgu.0.rcgu.o)
                0xffff800040230a00                <core::num::bignum::tests::Big8x3 as core::cmp::Ord>::cmp
 .text._ZN67_$LT$core..str..iter..EscapeDebug$u20$as$u20$core..fmt..Display$GT$3fmt17h6c83f428595a1326E
                0xffff800040230ab4      0x7f4 bin/obj/rslib.a(core-dca77d77b03929cc.core.bbd04c23a4fa3c72-cgu.0.rcgu.o)
                0xffff800040230ab4                <core::str::iter::EscapeDebug as core::fmt::Display>::fmt
 .text._ZN67_$LT$core..sync..atomic..AtomicBool$u20$as$u20$core..fmt..Debug$GT$3fmt17hdc7dd9a7f46e31ddE
                0xffff8000402312a8       0x2c bin/obj/rslib.a(core-dca77d77b03929cc.core.bbd04c23a4fa3c72-cgu.0.rcgu.o)
                0xffff8000402312a8                <core::sync::atomic::AtomicBool as core::fmt::Debug>::fmt
 .text._ZN67_$LT$core..sync..atomic..AtomicI128$u20$as$u20$core..fmt..Debug$GT$3fmt17h8c56552821b90023E
                0xffff8000402312d4       0x18 bin/obj/rslib.a(core-dca77d77b03929cc.core.bbd04c23a4fa3c72-cgu.0.rcgu.o)
                0xffff8000402312d4                <core::sync::atomic::AtomicI128 as core::fmt::Debug>::fmt
 .text._ZN67_$LT$core..sync..atomic..AtomicU128$u20$as$u20$core..fmt..Debug$GT$3fmt17h07217938942e974cE
                0xffff8000402312ec       0x18 bin/obj/rslib.a(core-dca77d77b03929cc.core.bbd04c23a4fa3c72-cgu.0.rcgu.o)
                0xffff8000402312ec                <core::sync::atomic::AtomicU128 as core::fmt::Debug>::fmt
 .text._ZN68_$LT$core..fmt..builders..PadAdapter$u20$as$u20$core..fmt..Write$GT$10write_char17h36c45c8c66684436E
                0xffff800040231304       0x80 bin/obj/rslib.a(core-dca77d77b03929cc.core.bbd04c23a4fa3c72-cgu.0.rcgu.o)
                0xffff800040231304                <core::fmt::builders::PadAdapter as core::fmt::Write>::write_char
 .text._ZN68_$LT$core..fmt..builders..PadAdapter$u20$as$u20$core..fmt..Write$GT$9write_str17hfbeb4381d38e3ba6E
                0xffff800040231384      0x248 bin/obj/rslib.a(core-dca77d77b03929cc.core.bbd04c23a4fa3c72-cgu.0.rcgu.o)
                0xffff800040231384                <core::fmt::builders::PadAdapter as core::fmt::Write>::write_str
 .text._ZN68_$LT$core..panic..location..Location$u20$as$u20$core..fmt..Debug$GT$3fmt17hacdb3b095e0cc913E
                0xffff8000402315cc      0x10c bin/obj/rslib.a(core-dca77d77b03929cc.core.bbd04c23a4fa3c72-cgu.0.rcgu.o)
                0xffff8000402315cc                <core::panic::location::Location as core::fmt::Debug>::fmt
 .text._ZN68_$LT$core..ptr..alignment..Alignment$u20$as$u20$core..fmt..Debug$GT$3fmt17h49a1850a7051aae7E
                0xffff8000402316d8       0x78 bin/obj/rslib.a(core-dca77d77b03929cc.core.bbd04c23a4fa3c72-cgu.0.rcgu.o)
                0xffff8000402316d8                <core::ptr::alignment::Alignment as core::fmt::Debug>::fmt
 .text._ZN68_$LT$core..slice..ascii..EscapeAscii$u20$as$u20$core..fmt..Debug$GT$3fmt17h2e25c3ee0c15ad8aE
                0xffff800040231750       0x60 bin/obj/rslib.a(core-dca77d77b03929cc.core.bbd04c23a4fa3c72-cgu.0.rcgu.o)
                0xffff800040231750                <core::slice::ascii::EscapeAscii as core::fmt::Debug>::fmt
 .text._ZN68_$LT$core..sync..atomic..AtomicUsize$u20$as$u20$core..fmt..Debug$GT$3fmt17hb3593d06b5039233E
                0xffff8000402317b0       0x28 bin/obj/rslib.a(core-dca77d77b03929cc.core.bbd04c23a4fa3c72-cgu.0.rcgu.o)
                0xffff8000402317b0                <core::sync::atomic::AtomicUsize as core::fmt::Debug>::fmt
 .text._ZN69_$LT$core..ffi..c_str..CStr$u20$as$u20$core..clone..CloneToUninit$GT$15clone_to_uninit17h3f90e2444fbef6feE
                0xffff8000402317d8       0x14 bin/obj/rslib.a(core-dca77d77b03929cc.core.bbd04c23a4fa3c72-cgu.0.rcgu.o)
                0xffff8000402317d8                <core::ffi::c_str::CStr as core::clone::CloneToUninit>::clone_to_uninit
 .text._ZN69_$LT$core..num..bignum..Big32x40$u20$as$u20$core..cmp..PartialOrd$GT$11partial_cmp17h70ad24837ffdb984E
                0xffff8000402317ec       0x74 bin/obj/rslib.a(core-dca77d77b03929cc.core.bbd04c23a4fa3c72-cgu.0.rcgu.o)
                0xffff8000402317ec                <core::num::bignum::Big32x40 as core::cmp::PartialOrd>::partial_cmp
 .text._ZN69_$LT$core..num..bignum..tests..Big8x3$u20$as$u20$core..fmt..Debug$GT$3fmt17hb8f50a6c2f4121d6E
                0xffff800040231860      0x13c bin/obj/rslib.a(core-dca77d77b03929cc.core.bbd04c23a4fa3c72-cgu.0.rcgu.o)
                0xffff800040231860                <core::num::bignum::tests::Big8x3 as core::fmt::Debug>::fmt
 .text._ZN69_$LT$core..str..iter..EscapeDefault$u20$as$u20$core..fmt..Display$GT$3fmt17hef57894ac3c37e16E
                0xffff80004023199c      0x4bc bin/obj/rslib.a(core-dca77d77b03929cc.core.bbd04c23a4fa3c72-cgu.0.rcgu.o)
                0xffff80004023199c                <core::str::iter::EscapeDefault as core::fmt::Display>::fmt
 .text._ZN69_$LT$core..str..iter..EscapeUnicode$u20$as$u20$core..fmt..Display$GT$3fmt17hb2e747dce047c603E
                0xffff800040231e58      0x358 bin/obj/rslib.a(core-dca77d77b03929cc.core.bbd04c23a4fa3c72-cgu.0.rcgu.o)
                0xffff800040231e58                <core::str::iter::EscapeUnicode as core::fmt::Display>::fmt
 .text._ZN70_$LT$core..num..error..ParseIntError$u20$as$u20$core..fmt..Display$GT$3fmt17hc33f567679727834E
                0xffff8000402321b0       0x28 bin/obj/rslib.a(core-dca77d77b03929cc.core.bbd04c23a4fa3c72-cgu.0.rcgu.o)
                0xffff8000402321b0                <core::num::error::ParseIntError as core::fmt::Display>::fmt
 .text._ZN70_$LT$core..slice..ascii..EscapeAscii$u20$as$u20$core..fmt..Display$GT$3fmt17h41e76c7378709e1bE
                0xffff8000402321d8      0x23c bin/obj/rslib.a(core-dca77d77b03929cc.core.bbd04c23a4fa3c72-cgu.0.rcgu.o)
                0xffff8000402321d8                <core::slice::ascii::EscapeAscii as core::fmt::Display>::fmt
 .text._ZN71_$LT$core..alloc..layout..LayoutError$u20$as$u20$core..fmt..Display$GT$3fmt17he2fc80f35b536f22E
                0xffff800040232414       0x1c bin/obj/rslib.a(core-dca77d77b03929cc.core.bbd04c23a4fa3c72-cgu.0.rcgu.o)
                0xffff800040232414                <core::alloc::layout::LayoutError as core::fmt::Display>::fmt
 .text._ZN71_$LT$core..ascii..ascii_char..AsciiChar$u20$as$u20$core..fmt..Debug$GT$3fmt17h49ea40eab09fc2a9E
                0xffff800040232430      0x160 bin/obj/rslib.a(core-dca77d77b03929cc.core.bbd04c23a4fa3c72-cgu.0.rcgu.o)
                0xffff800040232430                <core::ascii::ascii_char::AsciiChar as core::fmt::Debug>::fmt
 .text._ZN71_$LT$core..net..socket_addr..SocketAddr$u20$as$u20$core..fmt..Debug$GT$3fmt17h14882740df2189f8E
                0xffff800040232590       0x1c bin/obj/rslib.a(core-dca77d77b03929cc.core.bbd04c23a4fa3c72-cgu.0.rcgu.o)
                0xffff800040232590                <core::net::socket_addr::SocketAddr as core::fmt::Debug>::fmt
 .text._ZN71_$LT$core..ops..range..Range$LT$Idx$GT$$u20$as$u20$core..fmt..Debug$GT$3fmt17hf069d8b6b43943f3E
                0xffff8000402325ac       0x5c bin/obj/rslib.a(core-dca77d77b03929cc.core.bbd04c23a4fa3c72-cgu.0.rcgu.o)
 .text._ZN71_$LT$core..slice..GetDisjointMutError$u20$as$u20$core..fmt..Display$GT$3fmt17hffd18380c372a370E
                0xffff800040232608       0x30 bin/obj/rslib.a(core-dca77d77b03929cc.core.bbd04c23a4fa3c72-cgu.0.rcgu.o)
                0xffff800040232608                <core::slice::GetDisjointMutError as core::fmt::Display>::fmt
 .text._ZN71_$LT$core..str..error..ParseBoolError$u20$as$u20$core..fmt..Display$GT$3fmt17h74ffba207b5005d2E
                0xffff800040232638       0x14 bin/obj/rslib.a(core-dca77d77b03929cc.core.bbd04c23a4fa3c72-cgu.0.rcgu.o)
                0xffff800040232638                <core::str::error::ParseBoolError as core::fmt::Display>::fmt
 .text._ZN72_$LT$core..io..borrowed_buf..BorrowedBuf$u20$as$u20$core..fmt..Debug$GT$3fmt17h801203b2a82c8cc0E
                0xffff80004023264c      0x108 bin/obj/rslib.a(core-dca77d77b03929cc.core.bbd04c23a4fa3c72-cgu.0.rcgu.o)
                0xffff80004023264c                <core::io::borrowed_buf::BorrowedBuf as core::fmt::Debug>::fmt
 .text._ZN72_$LT$core..net..parser..AddrParseError$u20$as$u20$core..fmt..Display$GT$3fmt17h2ca00bd4bb12a433E
                0xffff800040232754       0x28 bin/obj/rslib.a(core-dca77d77b03929cc.core.bbd04c23a4fa3c72-cgu.0.rcgu.o)
                0xffff800040232754                <core::net::parser::AddrParseError as core::fmt::Display>::fmt
 .text._ZN72_$LT$core..num..error..TryFromIntError$u20$as$u20$core..fmt..Display$GT$3fmt17h8f056e1b6c72b655E
                0xffff80004023277c       0x14 bin/obj/rslib.a(core-dca77d77b03929cc.core.bbd04c23a4fa3c72-cgu.0.rcgu.o)
                0xffff80004023277c                <core::num::error::TryFromIntError as core::fmt::Display>::fmt
 .text._ZN72_$LT$core..num..niche_types..Nanoseconds$u20$as$u20$core..fmt..Debug$GT$3fmt17hd2c24a1aedf46acfE
                0xffff800040232790       0x28 bin/obj/rslib.a(core-dca77d77b03929cc.core.bbd04c23a4fa3c72-cgu.0.rcgu.o)
                0xffff800040232790                <core::num::niche_types::Nanoseconds as core::fmt::Debug>::fmt
 .text._ZN72_$LT$core..time..TryFromFloatSecsError$u20$as$u20$core..fmt..Display$GT$3fmt17h0338018b6c17225dE
                0xffff8000402327b8       0x30 bin/obj/rslib.a(core-dca77d77b03929cc.core.bbd04c23a4fa3c72-cgu.0.rcgu.o)
                0xffff8000402327b8                <core::time::TryFromFloatSecsError as core::fmt::Display>::fmt
 .text._ZN73_$LT$core..ascii..ascii_char..AsciiChar$u20$as$u20$core..fmt..Display$GT$3fmt17h491fdbe8541cb247E
                0xffff8000402327e8       0x14 bin/obj/rslib.a(core-dca77d77b03929cc.core.bbd04c23a4fa3c72-cgu.0.rcgu.o)
                0xffff8000402327e8                <core::ascii::ascii_char::AsciiChar as core::fmt::Display>::fmt
 .text._ZN73_$LT$core..net..socket_addr..SocketAddr$u20$as$u20$core..fmt..Display$GT$3fmt17he5ec9c72bc3b5f6aE
                0xffff8000402327fc       0x1c bin/obj/rslib.a(core-dca77d77b03929cc.core.bbd04c23a4fa3c72-cgu.0.rcgu.o)
                0xffff8000402327fc                <core::net::socket_addr::SocketAddr as core::fmt::Display>::fmt
 .text._ZN73_$LT$core..net..socket_addr..SocketAddrV4$u20$as$u20$core..fmt..Debug$GT$3fmt17h03eb2a46451a93b3E
                0xffff800040232818        0x4 bin/obj/rslib.a(core-dca77d77b03929cc.core.bbd04c23a4fa3c72-cgu.0.rcgu.o)
                0xffff800040232818                <core::net::socket_addr::SocketAddrV4 as core::fmt::Debug>::fmt
 .text._ZN73_$LT$core..net..socket_addr..SocketAddrV6$u20$as$u20$core..fmt..Debug$GT$3fmt17h39604fbfc13dd0eaE
                0xffff80004023281c        0x4 bin/obj/rslib.a(core-dca77d77b03929cc.core.bbd04c23a4fa3c72-cgu.0.rcgu.o)
                0xffff80004023281c                <core::net::socket_addr::SocketAddrV6 as core::fmt::Debug>::fmt
 .text._ZN73_$LT$core..num..nonzero..NonZero$LT$T$GT$$u20$as$u20$core..fmt..Debug$GT$3fmt17h6b8aae6058fb0d2bE
                0xffff800040232820       0x28 bin/obj/rslib.a(core-dca77d77b03929cc.core.bbd04c23a4fa3c72-cgu.0.rcgu.o)
 .text._ZN73_$LT$core..panic..location..Location$u20$as$u20$core..cmp..PartialOrd$GT$11partial_cmp17hac0266096a07eaffE
                0xffff800040232848       0xa0 bin/obj/rslib.a(core-dca77d77b03929cc.core.bbd04c23a4fa3c72-cgu.0.rcgu.o)
                0xffff800040232848                <core::panic::location::Location as core::cmp::PartialOrd>::partial_cmp
 .text._ZN73_$LT$core..panic..panic_info..PanicInfo$u20$as$u20$core..fmt..Display$GT$3fmt17h8bd55ba36d14a0feE
                0xffff8000402328e8      0x130 bin/obj/rslib.a(core-dca77d77b03929cc.core.bbd04c23a4fa3c72-cgu.0.rcgu.o)
                0xffff8000402328e8                <core::panic::panic_info::PanicInfo as core::fmt::Display>::fmt
 .text._ZN74_$LT$core..char..convert..ParseCharError$u20$as$u20$core..fmt..Display$GT$3fmt17hb946a568b486cb89E
                0xffff800040232a18       0x30 bin/obj/rslib.a(core-dca77d77b03929cc.core.bbd04c23a4fa3c72-cgu.0.rcgu.o)
                0xffff800040232a18                <core::char::convert::ParseCharError as core::fmt::Display>::fmt
 .text._ZN74_$LT$core..num..bignum..tests..Big8x3$u20$as$u20$core..cmp..PartialOrd$GT$11partial_cmp17h4e38f3c5a8491b4aE
                0xffff800040232a48       0xb4 bin/obj/rslib.a(core-dca77d77b03929cc.core.bbd04c23a4fa3c72-cgu.0.rcgu.o)
                0xffff800040232a48                <core::num::bignum::tests::Big8x3 as core::cmp::PartialOrd>::partial_cmp
 .text._ZN74_$LT$core..num..dec2flt..ParseFloatError$u20$as$u20$core..fmt..Display$GT$3fmt17h64d11440672d4729E
                0xffff800040232afc       0x30 bin/obj/rslib.a(core-dca77d77b03929cc.core.bbd04c23a4fa3c72-cgu.0.rcgu.o)
                0xffff800040232afc                <core::num::dec2flt::ParseFloatError as core::fmt::Display>::fmt
 .text._ZN74_$LT$core..num..niche_types..I32NotAllOnes$u20$as$u20$core..fmt..Debug$GT$3fmt17h143f5cb39da08cdfE
                0xffff800040232b2c       0xd4 bin/obj/rslib.a(core-dca77d77b03929cc.core.bbd04c23a4fa3c72-cgu.0.rcgu.o)
                0xffff800040232b2c                <core::num::niche_types::I32NotAllOnes as core::fmt::Debug>::fmt
 .text._ZN74_$LT$core..num..niche_types..I64NotAllOnes$u20$as$u20$core..fmt..Debug$GT$3fmt17h53b78ea6f9237360E
                0xffff800040232c00      0x208 bin/obj/rslib.a(core-dca77d77b03929cc.core.bbd04c23a4fa3c72-cgu.0.rcgu.o)
                0xffff800040232c00                <core::num::niche_types::I64NotAllOnes as core::fmt::Debug>::fmt
 .text._ZN74_$LT$core..num..niche_types..U32NotAllOnes$u20$as$u20$core..fmt..Debug$GT$3fmt17hc3935f5138ed5791E
                0xffff800040232e08       0x28 bin/obj/rslib.a(core-dca77d77b03929cc.core.bbd04c23a4fa3c72-cgu.0.rcgu.o)
                0xffff800040232e08                <core::num::niche_types::U32NotAllOnes as core::fmt::Debug>::fmt
 .text._ZN74_$LT$core..num..niche_types..U64NotAllOnes$u20$as$u20$core..fmt..Debug$GT$3fmt17h20a39ef454eb7d03E
                0xffff800040232e30        0x8 bin/obj/rslib.a(core-dca77d77b03929cc.core.bbd04c23a4fa3c72-cgu.0.rcgu.o)
                0xffff800040232e30                <core::num::niche_types::U64NotAllOnes as core::fmt::Debug>::fmt
 .text._ZN75_$LT$core..char..decode..DecodeUtf16Error$u20$as$u20$core..fmt..Display$GT$3fmt17hf51bb8fa56ff83bdE
                0xffff800040232e38       0x4c bin/obj/rslib.a(core-dca77d77b03929cc.core.bbd04c23a4fa3c72-cgu.0.rcgu.o)
                0xffff800040232e38                <core::char::decode::DecodeUtf16Error as core::fmt::Display>::fmt
 .text._ZN75_$LT$core..net..socket_addr..SocketAddrV4$u20$as$u20$core..fmt..Display$GT$3fmt17hdab5321e3438a21bE
                0xffff800040232e84      0x150 bin/obj/rslib.a(core-dca77d77b03929cc.core.bbd04c23a4fa3c72-cgu.0.rcgu.o)
                0xffff800040232e84                <core::net::socket_addr::SocketAddrV4 as core::fmt::Display>::fmt
 .text._ZN75_$LT$core..net..socket_addr..SocketAddrV6$u20$as$u20$core..fmt..Display$GT$3fmt17h9bf9b0d256a94595E
                0xffff800040232fd4      0x248 bin/obj/rslib.a(core-dca77d77b03929cc.core.bbd04c23a4fa3c72-cgu.0.rcgu.o)
                0xffff800040232fd4                <core::net::socket_addr::SocketAddrV6 as core::fmt::Display>::fmt
 .text._ZN75_$LT$core..num..niche_types..CodePointInner$u20$as$u20$core..fmt..Debug$GT$3fmt17h98c346724a88606cE
                0xffff80004023321c       0x28 bin/obj/rslib.a(core-dca77d77b03929cc.core.bbd04c23a4fa3c72-cgu.0.rcgu.o)
                0xffff80004023321c                <core::num::niche_types::CodePointInner as core::fmt::Debug>::fmt
 .text._ZN75_$LT$core..num..niche_types..NonZeroI8Inner$u20$as$u20$core..fmt..Debug$GT$3fmt17h64b1fdbce114f8a3E
                0xffff800040233244        0x8 bin/obj/rslib.a(core-dca77d77b03929cc.core.bbd04c23a4fa3c72-cgu.0.rcgu.o)
                0xffff800040233244                <core::num::niche_types::NonZeroI8Inner as core::fmt::Debug>::fmt
 .text._ZN75_$LT$core..num..niche_types..NonZeroU8Inner$u20$as$u20$core..fmt..Debug$GT$3fmt17h0505b20f2e632f64E
                0xffff80004023324c        0x8 bin/obj/rslib.a(core-dca77d77b03929cc.core.bbd04c23a4fa3c72-cgu.0.rcgu.o)
                0xffff80004023324c                <core::num::niche_types::NonZeroU8Inner as core::fmt::Debug>::fmt
 .text._ZN75_$LT$core..num..niche_types..UsizeNoHighBit$u20$as$u20$core..fmt..Debug$GT$3fmt17h6f3739917bf4731dE
                0xffff800040233254       0x28 bin/obj/rslib.a(core-dca77d77b03929cc.core.bbd04c23a4fa3c72-cgu.0.rcgu.o)
                0xffff800040233254                <core::num::niche_types::UsizeNoHighBit as core::fmt::Debug>::fmt
 .text._ZN76_$LT$core..char..convert..CharTryFromError$u20$as$u20$core..fmt..Display$GT$3fmt17habb0706acd6d0561E
                0xffff80004023327c       0x14 bin/obj/rslib.a(core-dca77d77b03929cc.core.bbd04c23a4fa3c72-cgu.0.rcgu.o)
                0xffff80004023327c                <core::char::convert::CharTryFromError as core::fmt::Display>::fmt
 .text._ZN76_$LT$core..mem..transmutability..Assume$u20$as$u20$core..ops..arith..Sub$GT$3sub17h07fcf1eb80c2b2d9E
                0xffff800040233290        0xc bin/obj/rslib.a(core-dca77d77b03929cc.core.bbd04c23a4fa3c72-cgu.0.rcgu.o)
                0xffff800040233290                <core::mem::transmutability::Assume as core::ops::arith::Sub>::sub
 .text._ZN76_$LT$core..net..ip_addr..Ipv4Addr$u20$as$u20$core..ops..bit..BitOrAssign$GT$12bitor_assign17hb68f0c7a641cc51fE
                0xffff80004023329c       0x60 bin/obj/rslib.a(core-dca77d77b03929cc.core.bbd04c23a4fa3c72-cgu.0.rcgu.o)
                0xffff80004023329c                <core::net::ip_addr::Ipv4Addr as core::ops::bit::BitOrAssign>::bitor_assign
 .text._ZN76_$LT$core..net..ip_addr..Ipv6Addr$u20$as$u20$core..ops..bit..BitOrAssign$GT$12bitor_assign17hdd296794f4d47cd3E
                0xffff8000402332fc      0x1d0 bin/obj/rslib.a(core-dca77d77b03929cc.core.bbd04c23a4fa3c72-cgu.0.rcgu.o)
                0xffff8000402332fc                <core::net::ip_addr::Ipv6Addr as core::ops::bit::BitOrAssign>::bitor_assign
 .text._ZN76_$LT$core..num..niche_types..NonZeroI16Inner$u20$as$u20$core..fmt..Debug$GT$3fmt17hf0ee77469ac4ce28E
                0xffff8000402334cc        0x8 bin/obj/rslib.a(core-dca77d77b03929cc.core.bbd04c23a4fa3c72-cgu.0.rcgu.o)
                0xffff8000402334cc                <core::num::niche_types::NonZeroI16Inner as core::fmt::Debug>::fmt
 .text._ZN76_$LT$core..num..niche_types..NonZeroI32Inner$u20$as$u20$core..fmt..Debug$GT$3fmt17h12c5e6a37f442a3fE
                0xffff8000402334d4       0xd4 bin/obj/rslib.a(core-dca77d77b03929cc.core.bbd04c23a4fa3c72-cgu.0.rcgu.o)
                0xffff8000402334d4                <core::num::niche_types::NonZeroI32Inner as core::fmt::Debug>::fmt
 .text._ZN76_$LT$core..num..niche_types..NonZeroI64Inner$u20$as$u20$core..fmt..Debug$GT$3fmt17hbe8fe22a5d5539e2E
                0xffff8000402335a8      0x204 bin/obj/rslib.a(core-dca77d77b03929cc.core.bbd04c23a4fa3c72-cgu.0.rcgu.o)
                0xffff8000402335a8                <core::num::niche_types::NonZeroIsizeInner as core::fmt::Debug>::fmt
                0xffff8000402335a8                <core::num::niche_types::NonZeroI64Inner as core::fmt::Debug>::fmt
 .text._ZN76_$LT$core..num..niche_types..NonZeroU16Inner$u20$as$u20$core..fmt..Debug$GT$3fmt17hded78cd74b99af2fE
                0xffff8000402337ac        0x8 bin/obj/rslib.a(core-dca77d77b03929cc.core.bbd04c23a4fa3c72-cgu.0.rcgu.o)
                0xffff8000402337ac                <core::num::niche_types::NonZeroU16Inner as core::fmt::Debug>::fmt
 .text._ZN76_$LT$core..num..niche_types..NonZeroU32Inner$u20$as$u20$core..fmt..Debug$GT$3fmt17h1c40d128be1abd57E
                0xffff8000402337b4       0x28 bin/obj/rslib.a(core-dca77d77b03929cc.core.bbd04c23a4fa3c72-cgu.0.rcgu.o)
                0xffff8000402337b4                <core::num::niche_types::NonZeroU32Inner as core::fmt::Debug>::fmt
 .text._ZN76_$LT$core..num..niche_types..NonZeroU64Inner$u20$as$u20$core..fmt..Debug$GT$3fmt17heaf30e8a9b4a192eE
                0xffff8000402337dc        0x8 bin/obj/rslib.a(core-dca77d77b03929cc.core.bbd04c23a4fa3c72-cgu.0.rcgu.o)
                0xffff8000402337dc                <core::num::niche_types::NonZeroU64Inner as core::fmt::Debug>::fmt
 .text._ZN77_$LT$core..net..ip_addr..Ipv4Addr$u20$as$u20$core..ops..bit..BitAndAssign$GT$13bitand_assign17hc7dc612f58ce4feaE
                0xffff8000402337e4       0x60 bin/obj/rslib.a(core-dca77d77b03929cc.core.bbd04c23a4fa3c72-cgu.0.rcgu.o)
                0xffff8000402337e4                <core::net::ip_addr::Ipv4Addr as core::ops::bit::BitAndAssign>::bitand_assign
 .text._ZN77_$LT$core..net..ip_addr..Ipv6Addr$u20$as$u20$core..ops..bit..BitAndAssign$GT$13bitand_assign17h117ffc127ea0c902E
                0xffff800040233844      0x1d0 bin/obj/rslib.a(core-dca77d77b03929cc.core.bbd04c23a4fa3c72-cgu.0.rcgu.o)
                0xffff800040233844                <core::net::ip_addr::Ipv6Addr as core::ops::bit::BitAndAssign>::bitand_assign
 .text._ZN77_$LT$core..num..niche_types..NonZeroCharInner$u20$as$u20$core..fmt..Debug$GT$3fmt17h6d4e4af2e26f4140E
                0xffff800040233a14       0xe4 bin/obj/rslib.a(core-dca77d77b03929cc.core.bbd04c23a4fa3c72-cgu.0.rcgu.o)
                0xffff800040233a14                <core::num::niche_types::NonZeroCharInner as core::fmt::Debug>::fmt
 .text._ZN77_$LT$core..num..niche_types..NonZeroI128Inner$u20$as$u20$core..fmt..Debug$GT$3fmt17h0f7dbeb4220eaa67E
                0xffff800040233af8       0x10 bin/obj/rslib.a(core-dca77d77b03929cc.core.bbd04c23a4fa3c72-cgu.0.rcgu.o)
                0xffff800040233af8                <core::num::niche_types::NonZeroI128Inner as core::fmt::Debug>::fmt
 .text._ZN77_$LT$core..num..niche_types..NonZeroU128Inner$u20$as$u20$core..fmt..Debug$GT$3fmt17hcb8a5bc49aa4755dE
                0xffff800040233b08       0x10 bin/obj/rslib.a(core-dca77d77b03929cc.core.bbd04c23a4fa3c72-cgu.0.rcgu.o)
                0xffff800040233b08                <core::num::niche_types::NonZeroU128Inner as core::fmt::Debug>::fmt
 .text._ZN78_$LT$core..error..Source$u20$as$u20$core..iter..traits..iterator..Iterator$GT$4next17h0a34f1389b59202cE
                0xffff800040233b18       0x50 bin/obj/rslib.a(core-dca77d77b03929cc.core.bbd04c23a4fa3c72-cgu.0.rcgu.o)
                0xffff800040233b18                <core::error::Source as core::iter::traits::iterator::Iterator>::next
 .text._ZN78_$LT$core..ffi..c_str..FromBytesWithNulError$u20$as$u20$core..fmt..Display$GT$3fmt17h23a828b2adb7affcE
                0xffff800040233b68       0x78 bin/obj/rslib.a(core-dca77d77b03929cc.core.bbd04c23a4fa3c72-cgu.0.rcgu.o)
                0xffff800040233b68                <core::ffi::c_str::FromBytesWithNulError as core::fmt::Display>::fmt
 .text._ZN78_$LT$core..num..niche_types..NonZeroUsizeInner$u20$as$u20$core..fmt..Debug$GT$3fmt17h2b0a1553026edf63E
                0xffff800040233be0       0x28 bin/obj/rslib.a(core-dca77d77b03929cc.core.bbd04c23a4fa3c72-cgu.0.rcgu.o)
                0xffff800040233be0                <core::num::niche_types::NonZeroUsizeInner as core::fmt::Debug>::fmt
 .text._ZN79_$LT$core..ffi..c_str..FromBytesUntilNulError$u20$as$u20$core..fmt..Display$GT$3fmt17h9fad536e772739e2E
                0xffff800040233c08       0x1c bin/obj/rslib.a(core-dca77d77b03929cc.core.bbd04c23a4fa3c72-cgu.0.rcgu.o)
                0xffff800040233c08                <core::ffi::c_str::FromBytesUntilNulError as core::fmt::Display>::fmt
 .text._ZN82_$LT$core..char..ToLowercase$u20$as$u20$core..iter..traits..iterator..Iterator$GT$10advance_by17hc057a2ce9fe3ce43E
                0xffff800040233c24       0x24 bin/obj/rslib.a(core-dca77d77b03929cc.core.bbd04c23a4fa3c72-cgu.0.rcgu.o)
                0xffff800040233c24                <core::char::ToUppercase as core::iter::traits::iterator::Iterator>::advance_by
                0xffff800040233c24                <core::char::ToLowercase as core::iter::traits::iterator::Iterator>::advance_by
 .text._ZN82_$LT$core..char..ToLowercase$u20$as$u20$core..iter..traits..iterator..Iterator$GT$24__iterator_get_unchecked17hc5c9b3d0bc29ba59E
                0xffff800040233c48       0x14 bin/obj/rslib.a(core-dca77d77b03929cc.core.bbd04c23a4fa3c72-cgu.0.rcgu.o)
                0xffff800040233c48                <core::char::ToLowercase as core::iter::traits::iterator::Iterator>::__iterator_get_unchecked
                0xffff800040233c48                <core::char::ToUppercase as core::iter::traits::iterator::Iterator>::__iterator_get_unchecked
 .text._ZN82_$LT$core..char..ToLowercase$u20$as$u20$core..iter..traits..iterator..Iterator$GT$4last17h66ebd099c6d10b09E
                0xffff800040233c5c       0x44 bin/obj/rslib.a(core-dca77d77b03929cc.core.bbd04c23a4fa3c72-cgu.0.rcgu.o)
                0xffff800040233c5c                <core::char::ToUppercase as core::iter::traits::iterator::Iterator>::last
                0xffff800040233c5c                <core::char::ToLowercase as core::iter::traits::iterator::Iterator>::last
 .text._ZN82_$LT$core..char..ToLowercase$u20$as$u20$core..iter..traits..iterator..Iterator$GT$4next17hb4b3068c552e2065E
                0xffff800040233ca0       0x2c bin/obj/rslib.a(core-dca77d77b03929cc.core.bbd04c23a4fa3c72-cgu.0.rcgu.o)
                0xffff800040233ca0                <core::char::ToLowercase as core::iter::traits::iterator::Iterator>::next
                0xffff800040233ca0                <core::char::ToUppercase as core::iter::traits::iterator::Iterator>::next
 .text._ZN82_$LT$core..char..ToLowercase$u20$as$u20$core..iter..traits..iterator..Iterator$GT$5count17hd37bb508491dc2c0E
                0xffff800040233ccc        0xc bin/obj/rslib.a(core-dca77d77b03929cc.core.bbd04c23a4fa3c72-cgu.0.rcgu.o)
                0xffff800040233ccc                <core::char::CaseMappingIter as core::iter::traits::iterator::Iterator>::count
                0xffff800040233ccc                <core::char::ToLowercase as core::iter::traits::iterator::Iterator>::count
                0xffff800040233ccc                <core::char::ToUppercase as core::iter::traits::iterator::Iterator>::count
 .text._ZN84_$LT$core..num..nonzero..NonZero$LT$i8$GT$$u20$as$u20$core..str..traits..FromStr$GT$8from_str17hd46d1decb8f9a7a6E
                0xffff800040233cd8      0x200 bin/obj/rslib.a(core-dca77d77b03929cc.core.bbd04c23a4fa3c72-cgu.0.rcgu.o)
                0xffff800040233cd8                <core::num::nonzero::NonZero<i8> as core::str::traits::FromStr>::from_str
 .text._ZN84_$LT$core..num..nonzero..NonZero$LT$u8$GT$$u20$as$u20$core..str..traits..FromStr$GT$8from_str17hbb143052fe75ac68E
                0xffff800040233ed8      0x114 bin/obj/rslib.a(core-dca77d77b03929cc.core.bbd04c23a4fa3c72-cgu.0.rcgu.o)
                0xffff800040233ed8                <core::num::nonzero::NonZero<u8> as core::str::traits::FromStr>::from_str
 .text._ZN84_$LT$core..panicking..assert_matches_failed..Pattern$u20$as$u20$core..fmt..Debug$GT$3fmt17he803faafa830904bE
                0xffff800040233fec       0x14 bin/obj/rslib.a(core-dca77d77b03929cc.core.bbd04c23a4fa3c72-cgu.0.rcgu.o)
                0xffff800040233fec                <core::panicking::assert_matches_failed::Pattern as core::fmt::Debug>::fmt
 .text._ZN85_$LT$core..marker..variance..PhantomCovariantLifetime$u20$as$u20$core..fmt..Debug$GT$3fmt17h3d5e23cb587bbfc6E
                0xffff800040234000       0x1c bin/obj/rslib.a(core-dca77d77b03929cc.core.bbd04c23a4fa3c72-cgu.0.rcgu.o)
                0xffff800040234000                <core::marker::variance::PhantomCovariantLifetime as core::fmt::Debug>::fmt
 .text._ZN85_$LT$core..marker..variance..PhantomInvariantLifetime$u20$as$u20$core..fmt..Debug$GT$3fmt17haa4470f65daf5fabE
                0xffff80004023401c       0x1c bin/obj/rslib.a(core-dca77d77b03929cc.core.bbd04c23a4fa3c72-cgu.0.rcgu.o)
                0xffff80004023401c                <core::marker::variance::PhantomInvariantLifetime as core::fmt::Debug>::fmt
 .text._ZN85_$LT$core..num..nonzero..NonZero$LT$i16$GT$$u20$as$u20$core..str..traits..FromStr$GT$8from_str17hdc13b71a6812a78fE
                0xffff800040234038      0x1f4 bin/obj/rslib.a(core-dca77d77b03929cc.core.bbd04c23a4fa3c72-cgu.0.rcgu.o)
                0xffff800040234038                <core::num::nonzero::NonZero<i16> as core::str::traits::FromStr>::from_str
 .text._ZN85_$LT$core..num..nonzero..NonZero$LT$i32$GT$$u20$as$u20$core..str..traits..FromStr$GT$8from_str17he22b46483e7be8ffE
                0xffff80004023422c      0x1e0 bin/obj/rslib.a(core-dca77d77b03929cc.core.bbd04c23a4fa3c72-cgu.0.rcgu.o)
                0xffff80004023422c                <core::num::nonzero::NonZero<i32> as core::str::traits::FromStr>::from_str
 .text._ZN85_$LT$core..num..nonzero..NonZero$LT$i64$GT$$u20$as$u20$core..str..traits..FromStr$GT$8from_str17hefcecba542985497E
                0xffff80004023440c      0x1c8 bin/obj/rslib.a(core-dca77d77b03929cc.core.bbd04c23a4fa3c72-cgu.0.rcgu.o)
                0xffff80004023440c                <core::num::nonzero::NonZero<i64> as core::str::traits::FromStr>::from_str
                0xffff80004023440c                <core::num::nonzero::NonZero<isize> as core::str::traits::FromStr>::from_str
 .text._ZN85_$LT$core..num..nonzero..NonZero$LT$u16$GT$$u20$as$u20$core..str..traits..FromStr$GT$8from_str17hc287c2fb1cc6442eE
                0xffff8000402345d4      0x124 bin/obj/rslib.a(core-dca77d77b03929cc.core.bbd04c23a4fa3c72-cgu.0.rcgu.o)
                0xffff8000402345d4                <core::num::nonzero::NonZero<u16> as core::str::traits::FromStr>::from_str
 .text._ZN85_$LT$core..num..nonzero..NonZero$LT$u32$GT$$u20$as$u20$core..str..traits..FromStr$GT$8from_str17h5df5fc681e47843cE
                0xffff8000402346f8      0x140 bin/obj/rslib.a(core-dca77d77b03929cc.core.bbd04c23a4fa3c72-cgu.0.rcgu.o)
                0xffff8000402346f8                <core::num::nonzero::NonZero<u32> as core::str::traits::FromStr>::from_str
 .text._ZN85_$LT$core..num..nonzero..NonZero$LT$u64$GT$$u20$as$u20$core..str..traits..FromStr$GT$8from_str17hea66eeae1fefcb14E
                0xffff800040234838      0x120 bin/obj/rslib.a(core-dca77d77b03929cc.core.bbd04c23a4fa3c72-cgu.0.rcgu.o)
                0xffff800040234838                <core::num::nonzero::NonZero<usize> as core::str::traits::FromStr>::from_str
                0xffff800040234838                <core::num::nonzero::NonZero<u64> as core::str::traits::FromStr>::from_str
 .text._ZN86_$LT$core..char..CaseMappingIter$u20$as$u20$core..iter..traits..iterator..Iterator$GT$10advance_by17h8d113a21c9e1b039E
                0xffff800040234958       0x24 bin/obj/rslib.a(core-dca77d77b03929cc.core.bbd04c23a4fa3c72-cgu.0.rcgu.o)
                0xffff800040234958                <core::char::CaseMappingIter as core::iter::traits::iterator::Iterator>::advance_by
 .text._ZN86_$LT$core..char..CaseMappingIter$u20$as$u20$core..iter..traits..iterator..Iterator$GT$24__iterator_get_unchecked17h382d818a4aebef5eE
                0xffff80004023497c       0x14 bin/obj/rslib.a(core-dca77d77b03929cc.core.bbd04c23a4fa3c72-cgu.0.rcgu.o)
                0xffff80004023497c                <core::char::CaseMappingIter as core::iter::traits::iterator::Iterator>::__iterator_get_unchecked
 .text._ZN86_$LT$core..char..CaseMappingIter$u20$as$u20$core..iter..traits..iterator..Iterator$GT$4last17hb29e011c8da57da8E
                0xffff800040234990       0x44 bin/obj/rslib.a(core-dca77d77b03929cc.core.bbd04c23a4fa3c72-cgu.0.rcgu.o)
                0xffff800040234990                <core::char::CaseMappingIter as core::iter::traits::iterator::Iterator>::last
 .text._ZN86_$LT$core..char..CaseMappingIter$u20$as$u20$core..iter..traits..iterator..Iterator$GT$4next17h4a001d63b7455739E
                0xffff8000402349d4       0x2c bin/obj/rslib.a(core-dca77d77b03929cc.core.bbd04c23a4fa3c72-cgu.0.rcgu.o)
                0xffff8000402349d4                <core::char::CaseMappingIter as core::iter::traits::iterator::Iterator>::next
 .text._ZN86_$LT$core..net..display_buffer..DisplayBuffer$LT$_$GT$$u20$as$u20$core..fmt..Write$GT$9write_str17h0a7fda5ac66f4daaE
                0xffff800040234a00       0x50 bin/obj/rslib.a(core-dca77d77b03929cc.core.bbd04c23a4fa3c72-cgu.0.rcgu.o)
 .text._ZN86_$LT$core..net..display_buffer..DisplayBuffer$LT$_$GT$$u20$as$u20$core..fmt..Write$GT$9write_str17h14d7af03d02a2f2fE
                0xffff800040234a50       0x50 bin/obj/rslib.a(core-dca77d77b03929cc.core.bbd04c23a4fa3c72-cgu.0.rcgu.o)
 .text._ZN86_$LT$core..net..display_buffer..DisplayBuffer$LT$_$GT$$u20$as$u20$core..fmt..Write$GT$9write_str17h3f53105d8582f017E
                0xffff800040234aa0       0x50 bin/obj/rslib.a(core-dca77d77b03929cc.core.bbd04c23a4fa3c72-cgu.0.rcgu.o)
 .text._ZN86_$LT$core..net..display_buffer..DisplayBuffer$LT$_$GT$$u20$as$u20$core..fmt..Write$GT$9write_str17hd57957a82b61e232E
                0xffff800040234af0       0x50 bin/obj/rslib.a(core-dca77d77b03929cc.core.bbd04c23a4fa3c72-cgu.0.rcgu.o)
 .text._ZN86_$LT$core..num..nonzero..NonZero$LT$i128$GT$$u20$as$u20$core..str..traits..FromStr$GT$8from_str17hf7494214aeeef837E
                0xffff800040234b40      0x248 bin/obj/rslib.a(core-dca77d77b03929cc.core.bbd04c23a4fa3c72-cgu.0.rcgu.o)
                0xffff800040234b40                <core::num::nonzero::NonZero<i128> as core::str::traits::FromStr>::from_str
 .text._ZN86_$LT$core..num..nonzero..NonZero$LT$u128$GT$$u20$as$u20$core..str..traits..FromStr$GT$8from_str17h22ac3775f01e91a2E
                0xffff800040234d88      0x154 bin/obj/rslib.a(core-dca77d77b03929cc.core.bbd04c23a4fa3c72-cgu.0.rcgu.o)
                0xffff800040234d88                <core::num::nonzero::NonZero<u128> as core::str::traits::FromStr>::from_str
 .text._ZN87_$LT$core..str..lossy..Utf8Chunks$u20$as$u20$core..iter..traits..iterator..Iterator$GT$4next17h2661d887a07547b9E
                0xffff800040234edc      0x1c0 bin/obj/rslib.a(core-dca77d77b03929cc.core.bbd04c23a4fa3c72-cgu.0.rcgu.o)
                0xffff800040234edc                <core::str::lossy::Utf8Chunks as core::iter::traits::iterator::Iterator>::next
 .text._ZN89_$LT$core..marker..variance..PhantomContravariantLifetime$u20$as$u20$core..fmt..Debug$GT$3fmt17hc3bd66dcd6a7ffdbE
                0xffff80004023509c       0x1c bin/obj/rslib.a(core-dca77d77b03929cc.core.bbd04c23a4fa3c72-cgu.0.rcgu.o)
                0xffff80004023509c                <core::marker::variance::PhantomContravariantLifetime as core::fmt::Debug>::fmt
 .text._ZN97_$LT$core..char..ToLowercase$u20$as$u20$core..iter..traits..double_ended..DoubleEndedIterator$GT$15advance_back_by17heaf9619999a7d7a3E
                0xffff8000402350b8       0x28 bin/obj/rslib.a(core-dca77d77b03929cc.core.bbd04c23a4fa3c72-cgu.0.rcgu.o)
                0xffff8000402350b8                <core::char::ToLowercase as core::iter::traits::double_ended::DoubleEndedIterator>::advance_back_by
                0xffff8000402350b8                <core::char::ToUppercase as core::iter::traits::double_ended::DoubleEndedIterator>::advance_back_by
 .text._ZN97_$LT$core..char..ToLowercase$u20$as$u20$core..iter..traits..double_ended..DoubleEndedIterator$GT$9next_back17h6b0f4f127dfecf3aE
                0xffff8000402350e0       0x28 bin/obj/rslib.a(core-dca77d77b03929cc.core.bbd04c23a4fa3c72-cgu.0.rcgu.o)
                0xffff8000402350e0                <core::char::ToLowercase as core::iter::traits::double_ended::DoubleEndedIterator>::next_back
                0xffff8000402350e0                <core::char::ToUppercase as core::iter::traits::double_ended::DoubleEndedIterator>::next_back
 .text.OUTLINED_FUNCTION_0
                0xffff800040235108       0x18 bin/obj/rslib.a(core-dca77d77b03929cc.core.bbd04c23a4fa3c72-cgu.0.rcgu.o)
 .text.OUTLINED_FUNCTION_1
                0xffff800040235120        0xc bin/obj/rslib.a(core-dca77d77b03929cc.core.bbd04c23a4fa3c72-cgu.0.rcgu.o)
 .text          0xffff80004023512c        0x0 bin/obj/rslib.a(compiler_builtins-fabd8ee97a026881.compiler_builtins.f286be164c3a919f-cgu.099.rcgu.o)
 .text.memcmp   0xffff80004023512c       0x28 bin/obj/rslib.a(compiler_builtins-fabd8ee97a026881.compiler_builtins.f286be164c3a919f-cgu.099.rcgu.o)
                0xffff80004023512c                memcmp
 .text          0xffff800040235154        0x0 bin/obj/rslib.a(compiler_builtins-fabd8ee97a026881.compiler_builtins.f286be164c3a919f-cgu.173.rcgu.o)
 .text.memcpy   0xffff800040235154      0x20c bin/obj/rslib.a(compiler_builtins-fabd8ee97a026881.compiler_builtins.f286be164c3a919f-cgu.173.rcgu.o)
                0xffff800040235154                memcpy
 .text          0xffff800040235360        0x0 bin/obj/rslib.a(compiler_builtins-fabd8ee97a026881.compiler_builtins.f286be164c3a919f-cgu.242.rcgu.o)
 .text.__udivti3
                0xffff800040235360       0x24 bin/obj/rslib.a(compiler_builtins-fabd8ee97a026881.compiler_builtins.f286be164c3a919f-cgu.242.rcgu.o)
                0xffff800040235360                __udivti3
 .text          0xffff800040235384        0x0 bin/obj/rslib.a(compiler_builtins-fabd8ee97a026881.compiler_builtins.f286be164c3a919f-cgu.295.rcgu.o)
 .text.memset   0xffff800040235384      0x154 bin/obj/rslib.a(compiler_builtins-fabd8ee97a026881.compiler_builtins.f286be164c3a919f-cgu.295.rcgu.o)
                0xffff800040235384                memset
 *fill*         0xffff8000402354d8        0x8 
 .text          0xffff8000402354e0       0x2c bin/obj/rslib.a(ee225a53f1a5b703-lse_ldadd4_acq_rel.o)
                0xffff8000402354e0                __aarch64_ldadd4_acq_rel
 *fill*         0xffff80004023550c        0x4 
 .text          0xffff800040235510       0x2c bin/obj/rslib.a(ee225a53f1a5b703-lse_ldadd8_acq_rel.o)
                0xffff800040235510                __aarch64_ldadd8_acq_rel
 .text          0xffff80004023553c        0x0 bin/obj/rslib.a(670c1ed24249df13-aarch64.o)
 *fill*         0xffff80004023553c        0x4 
 .text.__init_cpu_features_resolver
                0xffff800040235540        0x4 bin/obj/rslib.a(670c1ed24249df13-aarch64.o)
                0xffff800040235540                __init_cpu_features_resolver
 *fill*         0xffff800040235544        0x4 
 .text.__init_cpu_features
                0xffff800040235548        0x4 bin/obj/rslib.a(670c1ed24249df13-aarch64.o)
                0xffff800040235548                __init_cpu_features
 .text          0xffff80004023554c        0x0 bin/obj/rslib.a(compiler_builtins-fabd8ee97a026881.compiler_builtins.f286be164c3a919f-cgu.018.rcgu.o)
 .text._ZN17compiler_builtins3int19specialized_div_rem12u128_div_rem17hf0411c212b5a2bc0E
                0xffff80004023554c      0x324 bin/obj/rslib.a(compiler_builtins-fabd8ee97a026881.compiler_builtins.f286be164c3a919f-cgu.018.rcgu.o)
                0xffff80004023554c                compiler_builtins::int::specialized_div_rem::u128_div_rem
                0xffff800040235870                __vectors_start = .
 *(.vectors)
 *fill*         0xffff800040235870      0x790 
 .vectors       0xffff800040236000      0x784 bin/obj/__arm/exceptions/el2_vectors.o
                0xffff800040236000                _el2_vector_table
 *fill*         0xffff800040236784       0x7c 
 .vectors       0xffff800040236800      0x784 bin/obj/__arm/exceptions/el1_vectors.o
                0xffff800040236800                _el1_vector_table
                0xffff800040236f84                __vectors_end = .
                0xffff800040237000                . = ALIGN (0x1000)
 *fill*         0xffff800040236f84       0x7c 
                0xffff800040237000                __text_end = .
                0x0000000000037000                __text_size = (__text_end - __text_start)

.iplt           0xffff800040237000        0x0 load address 0x0000000040237000
 .iplt          0xffff800040237000        0x0 bin/obj/__kernel/mm/reloc/reloc.o

.rela.dyn       0xffff800040237000        0x0 load address 0x0000000040237000
 .rela.iplt     0xffff800040237000        0x0 bin/obj/__kernel/mm/reloc/reloc.o
 .rela.text     0xffff800040237000        0x0 bin/obj/__kernel/mm/reloc/reloc.o
 .rela.text.boot
                0xffff800040237000        0x0 bin/obj/__kernel/mm/reloc/reloc.o
 .rela.rodata   0xffff800040237000        0x0 bin/obj/__kernel/mm/reloc/reloc.o

.rodata         0xffff800040237000    0x27000 load address 0x0000000040237000
                0xffff800040237000                __rodata_start = .
 *(.rodata*)
 .rodata        0xffff800040237000       0x60 bin/obj/kernel/devices/drivers.o
                0xffff800040237000                AGT0_DRIVER
                0xffff800040237010                TMU_DRIVER
                0xffff800040237020                UART4_DRIVER
                0xffff800040237030                UART3_DRIVER
                0xffff800040237040                UART1_DRIVER
                0xffff800040237050                GIC_DRIVER
 .rodata        0xffff800040237060       0x20 bin/obj/kernel/init/init_drivers.o
 .rodata.str1.8
                0xffff800040237080     0x48f9 bin/obj/kernel/lib/kvec.o
                                         0xb6 (size before relaxing)
 .rodata.str1.8
                0xffff80004023b979        0x0 bin/obj/kernel/mm/phys/page_allocator.o
                                        0x2dc (size before relaxing)
 .rodata.str1.8
                0xffff80004023b979        0x0 bin/obj/kernel/mm/init/mem_regions/mem_regions.o
                                         0x1c (size before relaxing)
 *fill*         0xffff80004023b979        0x7 
 .rodata        0xffff80004023b980       0xa0 bin/obj/kernel/mm/init/mem_regions/mem_regions.o
                0xffff80004023b980                MEM_REGIONS_RESERVED
                0xffff80004023b990                MEM_REGIONS
 .rodata.str1.8
                0xffff80004023ba20        0x0 bin/obj/kernel/mm/init/mem_regions/early_kalloc.o
                                        0x734 (size before relaxing)
 .rodata.str1.8
                0xffff80004023ba20        0x0 bin/obj/kernel/mm/init/identity_mapping.o
                                        0x172 (size before relaxing)
 .rodata.str1.8
                0xffff80004023ba20        0x0 bin/obj/kernel/mm/virt/containers/containers.o
                                        0x1e5 (size before relaxing)
 .rodata.str1.8
                0xffff80004023ba20        0x0 bin/obj/kernel/mm/virt/mdt/mdt.o
                                         0x26 (size before relaxing)
 .rodata.str1.8
                0xffff80004023ba20        0x0 bin/obj/kernel/mm/virt/vmalloc.o
                                        0x785 (size before relaxing)
 .rodata.str1.8
                0xffff80004023ba20        0x0 bin/obj/kernel/mm/malloc/raw_kmalloc/raw_kmalloc.o
                                        0x151 (size before relaxing)
 .rodata        0xffff80004023ba20       0x4e bin/obj/kernel/mm/malloc/raw_kmalloc/raw_kmalloc.o
                0xffff80004023ba60                RAW_KMALLOC_DYNAMIC_CFG
                0xffff80004023ba68                RAW_KMALLOC_KMAP_CFG
 .rodata.str1.8
                0xffff80004023ba6e        0x0 bin/obj/kernel/mm/malloc/cache_malloc/cache_malloc.o
                                        0x19a (size before relaxing)
 *fill*         0xffff80004023ba6e        0x2 
 .rodata        0xffff80004023ba70      0x108 bin/obj/kernel/mm/malloc/cache_malloc/cache_malloc.o
 .rodata.str1.8
                0xffff80004023bb78        0x0 bin/obj/kernel/mm/malloc/internal/reserve_malloc.o
                                        0x161 (size before relaxing)
 .rodata        0xffff80004023bb78        0x8 bin/obj/kernel/mm/malloc/internal/reserve_malloc.o
                0xffff80004023bb78                RESERVE_MALLOC_RESERVE_SIZE
 .rodata.str1.8
                0xffff80004023bb80        0x0 bin/obj/kernel/mm/malloc/kmalloc/kmalloc.o
                                         0x70 (size before relaxing)
 .rodata.str1.8
                0xffff80004023bb80        0x0 bin/obj/kernel/mm/malloc/umalloc.o
                                        0x1f0 (size before relaxing)
 .rodata        0xffff80004023bb80       0x20 bin/obj/kernel/mm/malloc/umalloc.o
 .rodata.str1.8
                0xffff80004023bba0        0x0 bin/obj/kernel/mm/reloc/reloc.o
                                         0x61 (size before relaxing)
 .rodata.str1.8
                0xffff80004023bba0        0x0 bin/obj/kernel/mm/mm_mmu/mm_mmu.o
                                         0xcb (size before relaxing)
 .rodata        0xffff80004023bba0       0x10 bin/obj/kernel/mm/mm_mmu/mm_mmu.o
                0xffff80004023bba0                MM_MMU_UNMAPPED_LO
                0xffff80004023bba8                MM_MMU_KERNEL_MAPPING
 .rodata.str1.8
                0xffff80004023bbb0        0x0 bin/obj/kernel/mm/mm_info.o
                                        0x221 (size before relaxing)
 .rodata        0xffff80004023bbb0       0x78 bin/obj/kernel/mm/mm_info.o
                0xffff80004023bbb0                MM_KSECTIONS
 .rodata.str1.8
                0xffff80004023bc28        0x0 bin/obj/kernel/mm/elf.o
                                        0x19d (size before relaxing)
 .rodata        0xffff80004023bc28       0x20 bin/obj/kernel/io/stdio.o
 .rodata.str1.8
                0xffff80004023bc48        0x0 bin/obj/kernel/io/stdputc.o
                                          0x5 (size before relaxing)
 .rodata        0xffff80004023bc48       0x28 bin/obj/kernel/io/stdputc.o
                0xffff80004023bc48                STDIO_PUTC
                0xffff80004023bc68                STDIO_EARLY_PUTC
 .rodata.str1.8
                0xffff80004023bc70        0x0 bin/obj/kernel/panic/panic_exception/esr/data_abort.o
                                       0x128f (size before relaxing)
 .rodata        0xffff80004023bc70      0x1b0 bin/obj/kernel/panic/panic_exception/esr/data_abort.o
 .rodata.str1.8
                0xffff80004023be20        0x0 bin/obj/kernel/panic/panic_exception/esr/esr.o
                                        0x5cd (size before relaxing)
 .rodata        0xffff80004023be20      0x1f0 bin/obj/kernel/panic/panic_exception/esr/esr.o
 .rodata.str1.8
                0xffff80004023c010        0x0 bin/obj/kernel/panic/panic_exception/panic_exception_handlers.o
                                         0xaa (size before relaxing)
 .rodata        0xffff80004023c010       0x20 bin/obj/kernel/panic/panic_exception/panic_exception_handlers.o
 .rodata.str1.8
                0xffff80004023c030        0x0 bin/obj/kernel/panic/panic.o
                                        0x175 (size before relaxing)
 .rodata        0xffff80004023c030       0x18 bin/obj/kernel/panic/panic.o
 .rodata.str1.8
                0xffff80004023c048        0x0 bin/obj/kernel/exception/el0/sync/sync.o
                                         0x36 (size before relaxing)
 .rodata.str1.8
                0xffff80004023c048        0x0 bin/obj/kernel/exception/el1/irq.o
                                         0x30 (size before relaxing)
 .rodata        0xffff80004023c048       0x28 bin/obj/kernel/scheduler/task.o
 .rodata.str1.8
                0xffff80004023c070        0x0 bin/obj/kernel/scheduler/scheduler.o
                                         0x3a (size before relaxing)
 .rodata.str1.8
                0xffff80004023c070        0x0 bin/obj/kernel/scheduler/thread.o
                                         0x9f (size before relaxing)
 .rodata        0xffff80004023c070       0x10 bin/obj/kernel/syscall/syscall.o
 .rodata        0xffff80004023c080    0x12560 bin/obj/kernel/userspace_embedded_examples.o
                0xffff80004023c080                HELLO_WORLD_ELF
                0xffff80004024e5d8                HELLO_WORLD_ELF_SIZE
 .rodata.str1.8
                0xffff80004024e5e0        0x0 bin/obj/kernel/kernel_entry.o
                                         0x7d (size before relaxing)
 .rodata.str1.8
                0xffff80004024e5e0        0x0 bin/obj/arm/exceptions/handlers/el1/el1_low_a32_serror.o
                                         0x35 (size before relaxing)
 .rodata.str1.8
                0xffff80004024e5e0        0x0 bin/obj/arm/exceptions/handlers/el1/el1_low_a32_fiq.o
                                         0x32 (size before relaxing)
 .rodata.str1.8
                0xffff80004024e5e0        0x0 bin/obj/arm/exceptions/handlers/el1/el1_cur_spx_fiq.o
                                         0x32 (size before relaxing)
 .rodata.str1.8
                0xffff80004024e5e0        0x0 bin/obj/arm/exceptions/handlers/el1/el1_cur_spx_serror.o
                                         0x35 (size before relaxing)
 .rodata.str1.8
                0xffff80004024e5e0        0x0 bin/obj/arm/exceptions/handlers/el1/el1_low_a32_irq.o
                                         0x32 (size before relaxing)
 .rodata.str1.8
                0xffff80004024e5e0        0x0 bin/obj/arm/exceptions/handlers/el1/el1_low_a64_fiq.o
                                         0x32 (size before relaxing)
 .rodata.str1.8
                0xffff80004024e5e0        0x0 bin/obj/arm/exceptions/handlers/el1/el1_cur_sp0_sync.o
                                         0x33 (size before relaxing)
 .rodata.str1.8
                0xffff80004024e5e0        0x0 bin/obj/arm/exceptions/handlers/el1/el1_low_a64_serror.o
                                         0x35 (size before relaxing)
 .rodata.str1.8
                0xffff80004024e5e0        0x0 bin/obj/arm/exceptions/handlers/el1/el1_low_a32_sync.o
                                         0x33 (size before relaxing)
 .rodata.str1.8
                0xffff80004024e5e0        0x0 bin/obj/arm/exceptions/handlers/el1/el1_cur_spx_sync.o
                                         0x33 (size before relaxing)
 .rodata.str1.8
                0xffff80004024e5e0        0x0 bin/obj/arm/exceptions/handlers/el1/el1_cur_sp0_fiq.o
                                         0x32 (size before relaxing)
 .rodata.str1.8
                0xffff80004024e5e0        0x0 bin/obj/arm/exceptions/handlers/el1/el1_cur_sp0_serror.o
                                         0x35 (size before relaxing)
 .rodata.str1.8
                0xffff80004024e5e0        0x0 bin/obj/arm/exceptions/handlers/el1/el1_cur_sp0_irq.o
                                         0x32 (size before relaxing)
 .rodata.str1.8
                0xffff80004024e5e0        0x0 bin/obj/arm/exceptions/handlers/el2/el2_low_a32_serror.o
                                         0x34 (size before relaxing)
 .rodata.str1.8
                0xffff80004024e5e0        0x0 bin/obj/arm/exceptions/handlers/el2/el2_cur_spx_serror.o
                                         0x34 (size before relaxing)
 .rodata.str1.8
                0xffff80004024e5e0        0x0 bin/obj/arm/exceptions/handlers/el2/el2_low_a64_serror.o
                                         0x34 (size before relaxing)
 .rodata.str1.8
                0xffff80004024e5e0        0x0 bin/obj/arm/exceptions/handlers/el2/el2_low_a64_sync.o
                                         0x32 (size before relaxing)
 .rodata.str1.8
                0xffff80004024e5e0        0x0 bin/obj/arm/exceptions/handlers/el2/el2_cur_sp0_irq.o
                                         0x31 (size before relaxing)
 .rodata.str1.8
                0xffff80004024e5e0        0x0 bin/obj/arm/exceptions/handlers/el2/el2_cur_sp0_serror.o
                                         0x34 (size before relaxing)
 .rodata.str1.8
                0xffff80004024e5e0        0x0 bin/obj/arm/exceptions/handlers/el2/el2_low_a64_irq.o
                                         0x31 (size before relaxing)
 .rodata.str1.8
                0xffff80004024e5e0        0x0 bin/obj/arm/exceptions/handlers/el2/el2_low_a64_fiq.o
                                         0x31 (size before relaxing)
 .rodata.str1.8
                0xffff80004024e5e0        0x0 bin/obj/arm/exceptions/handlers/el2/el2_cur_spx_fiq.o
                                         0x31 (size before relaxing)
 .rodata.str1.8
                0xffff80004024e5e0        0x0 bin/obj/arm/exceptions/handlers/el2/el2_low_a32_irq.o
                                         0x31 (size before relaxing)
 .rodata.str1.8
                0xffff80004024e5e0        0x0 bin/obj/arm/exceptions/handlers/el2/el2_cur_sp0_fiq.o
                                         0x31 (size before relaxing)
 .rodata.str1.8
                0xffff80004024e5e0        0x0 bin/obj/arm/exceptions/handlers/el2/el2_low_a32_fiq.o
                                         0x31 (size before relaxing)
 .rodata.str1.8
                0xffff80004024e5e0        0x0 bin/obj/arm/exceptions/handlers/el2/el2_cur_spx_sync.o
                                         0x32 (size before relaxing)
 .rodata.str1.8
                0xffff80004024e5e0        0x0 bin/obj/arm/exceptions/handlers/el2/el2_low_a32_sync.o
                                         0x32 (size before relaxing)
 .rodata.str1.8
                0xffff80004024e5e0        0x0 bin/obj/arm/exceptions/handlers/el2/el2_cur_sp0_sync.o
                                         0x32 (size before relaxing)
 .rodata.str1.8
                0xffff80004024e5e0        0x0 bin/obj/arm/exceptions/handlers/el2/el2_cur_spx_irq.o
                                         0x31 (size before relaxing)
 .rodata.str1.8
                0xffff80004024e5e0        0x0 bin/obj/arm/exceptions/handlers/exception_macros.o
                                         0xbf (size before relaxing)
 .rodata.str1.8
                0xffff80004024e5e0        0x0 bin/obj/arm/mmu/mmu.o
                                        0x1fd (size before relaxing)
 .rodata.str1.8
                0xffff80004024e5e0        0x0 bin/obj/arm/mmu/mmu_core.o
                                        0x155 (size before relaxing)
 .rodata        0xffff80004024e5e0       0x30 bin/obj/arm/mmu/mmu_core.o
                0xffff80004024e5e0                MMU_NULL_MAPPING
 .rodata.str1.8
                0xffff80004024e610        0x0 bin/obj/lib/lock/corelock.o
                                         0x8b (size before relaxing)
 .rodata.str1.8
                0xffff80004024e610        0x0 bin/obj/lib/string/fmt.o
                                        0x12f (size before relaxing)
 .rodata        0xffff80004024e610       0x10 bin/obj/lib/string/fmt.o
 .rodata.str1.8
                0xffff80004024e620        0x0 bin/obj/lib/mem/memcpy/memcpy.o
                                         0xd7 (size before relaxing)
 .rodata.str1.8
                0xffff80004024e620        0x0 bin/obj/lib/mem/mem.o
                                         0x1b (size before relaxing)
 .rodata        0xffff80004024e620       0x40 bin/obj/lib/mem/mem.o
 .rodata.str1.8
                0xffff80004024e660        0x0 bin/obj/drivers/tmu/tmu.o
                                        0x113 (size before relaxing)
 .rodata        0xffff80004024e660       0x33 bin/obj/drivers/tmu/tmu.o
                0xffff80004024e690                TMU_MAX_RECCOMENDED_TEMP_C
                0xffff80004024e691                TMU_MIN_SENSOR_TEMP_C
                0xffff80004024e692                TMU_MAX_SENSOR_TEMP_C
 .rodata.str1.8
                0xffff80004024e693        0x0 bin/obj/drivers/interrupts/gicv3/gicv3.o
                                        0x110 (size before relaxing)
 .rodata.str1.8
                0xffff80004024e693        0x0 bin/obj/drivers/uart/uart.o
                                         0x49 (size before relaxing)
 *fill*         0xffff80004024e693        0x5 
 .rodata        0xffff80004024e698       0xe8 bin/obj/drivers/uart/uart.o
                0xffff80004024e768                USR1_IRQ_W1C_BITS_
                0xffff80004024e778                USR2_IRQ_W2C_BITS_
 .rodata.str1.1
                0xffff80004024e780      0x42a bin/obj/rslib.a(imx8mp_kernel-1a53598e06c50be6.imx8mp_kernel.241a9a11e0e6ae75-cgu.0.rcgu.o)
                                         0x61 (size before relaxing)
 *fill*         0xffff80004024ebaa        0x6 
 .rodata..Lanon.2fa78918b234230907a066c05dcc6487.2
                0xffff80004024ebb0       0x18 bin/obj/rslib.a(imx8mp_kernel-1a53598e06c50be6.imx8mp_kernel.241a9a11e0e6ae75-cgu.0.rcgu.o)
 .rodata..Lanon.2fa78918b234230907a066c05dcc6487.3
                0xffff80004024ebc8       0x18 bin/obj/rslib.a(imx8mp_kernel-1a53598e06c50be6.imx8mp_kernel.241a9a11e0e6ae75-cgu.0.rcgu.o)
 .rodata..Lanon.2fa78918b234230907a066c05dcc6487.4
                0xffff80004024ebe0       0x18 bin/obj/rslib.a(imx8mp_kernel-1a53598e06c50be6.imx8mp_kernel.241a9a11e0e6ae75-cgu.0.rcgu.o)
 .rodata..Lanon.2fa78918b234230907a066c05dcc6487.5
                0xffff80004024ebf8       0x44 bin/obj/rslib.a(imx8mp_kernel-1a53598e06c50be6.imx8mp_kernel.241a9a11e0e6ae75-cgu.0.rcgu.o)
 *fill*         0xffff80004024ec3c        0x4 
 .rodata..Lanon.2fa78918b234230907a066c05dcc6487.6
                0xffff80004024ec40       0x10 bin/obj/rslib.a(imx8mp_kernel-1a53598e06c50be6.imx8mp_kernel.241a9a11e0e6ae75-cgu.0.rcgu.o)
 .rodata..Lanon.2fa78918b234230907a066c05dcc6487.7
                0xffff80004024ec50       0x18 bin/obj/rslib.a(imx8mp_kernel-1a53598e06c50be6.imx8mp_kernel.241a9a11e0e6ae75-cgu.0.rcgu.o)
 .rodata..Lanon.2fa78918b234230907a066c05dcc6487.8
                0xffff80004024ec68       0x18 bin/obj/rslib.a(imx8mp_kernel-1a53598e06c50be6.imx8mp_kernel.241a9a11e0e6ae75-cgu.0.rcgu.o)
 .rodata..Lanon.2fa78918b234230907a066c05dcc6487.9
                0xffff80004024ec80       0x10 bin/obj/rslib.a(imx8mp_kernel-1a53598e06c50be6.imx8mp_kernel.241a9a11e0e6ae75-cgu.0.rcgu.o)
 .rodata..Lanon.2fa78918b234230907a066c05dcc6487.10
                0xffff80004024ec90       0x18 bin/obj/rslib.a(imx8mp_kernel-1a53598e06c50be6.imx8mp_kernel.241a9a11e0e6ae75-cgu.0.rcgu.o)
 .rodata..Lanon.2fa78918b234230907a066c05dcc6487.11
                0xffff80004024eca8       0x18 bin/obj/rslib.a(imx8mp_kernel-1a53598e06c50be6.imx8mp_kernel.241a9a11e0e6ae75-cgu.0.rcgu.o)
 .rodata..Lanon.2fa78918b234230907a066c05dcc6487.12
                0xffff80004024ecc0        0xf bin/obj/rslib.a(imx8mp_kernel-1a53598e06c50be6.imx8mp_kernel.241a9a11e0e6ae75-cgu.0.rcgu.o)
 *fill*         0xffff80004024eccf        0x1 
 .rodata..Lanon.2fa78918b234230907a066c05dcc6487.13
                0xffff80004024ecd0       0x10 bin/obj/rslib.a(imx8mp_kernel-1a53598e06c50be6.imx8mp_kernel.241a9a11e0e6ae75-cgu.0.rcgu.o)
 .rodata..Lanon.2fa78918b234230907a066c05dcc6487.15
                0xffff80004024ece0       0x18 bin/obj/rslib.a(imx8mp_kernel-1a53598e06c50be6.imx8mp_kernel.241a9a11e0e6ae75-cgu.0.rcgu.o)
 .rodata..Lanon.2fa78918b234230907a066c05dcc6487.16
                0xffff80004024ecf8        0xe bin/obj/rslib.a(imx8mp_kernel-1a53598e06c50be6.imx8mp_kernel.241a9a11e0e6ae75-cgu.0.rcgu.o)
 *fill*         0xffff80004024ed06        0x2 
 .rodata..Lanon.2fa78918b234230907a066c05dcc6487.18
                0xffff80004024ed08       0x18 bin/obj/rslib.a(imx8mp_kernel-1a53598e06c50be6.imx8mp_kernel.241a9a11e0e6ae75-cgu.0.rcgu.o)
 .rodata.cst16  0xffff80004024ed20       0xf0 bin/obj/rslib.a(core-dca77d77b03929cc.core.bbd04c23a4fa3c72-cgu.0.rcgu.o)
                                        0x130 (size before relaxing)
 .rodata.cst8   0xffff80004024ee10       0x58 bin/obj/rslib.a(core-dca77d77b03929cc.core.bbd04c23a4fa3c72-cgu.0.rcgu.o)
 .rodata        0xffff80004024ee68        0x4 bin/obj/rslib.a(core-dca77d77b03929cc.core.bbd04c23a4fa3c72-cgu.0.rcgu.o)
 .rodata._ZN4core7unicode12unicode_data10alphabetic7OFFSETS17h6ad658de98a7b65cE
                0xffff80004024ee6c      0x5ef bin/obj/rslib.a(core-dca77d77b03929cc.core.bbd04c23a4fa3c72-cgu.0.rcgu.o)
 .rodata._ZN4core7unicode12unicode_data11white_space14WHITESPACE_MAP17h4384a9c112c0b33aE
                0xffff80004024f45b      0x100 bin/obj/rslib.a(core-dca77d77b03929cc.core.bbd04c23a4fa3c72-cgu.0.rcgu.o)
                0xffff80004024f45b                core::unicode::unicode_data::white_space::WHITESPACE_MAP
 .rodata._ZN4core7unicode12unicode_data14case_ignorable7OFFSETS17hda6dc735a1d56f33E
                0xffff80004024f55b      0x397 bin/obj/rslib.a(core-dca77d77b03929cc.core.bbd04c23a4fa3c72-cgu.0.rcgu.o)
 .rodata._ZN4core7unicode12unicode_data15grapheme_extend7OFFSETS17h826aa25ae46177bbE
                0xffff80004024f8f2      0x2ff bin/obj/rslib.a(core-dca77d77b03929cc.core.bbd04c23a4fa3c72-cgu.0.rcgu.o)
 .rodata._ZN4core7unicode12unicode_data1n7OFFSETS17h122095fa14f2ae65E
                0xffff80004024fbf1      0x123 bin/obj/rslib.a(core-dca77d77b03929cc.core.bbd04c23a4fa3c72-cgu.0.rcgu.o)
 .rodata._ZN4core7unicode12unicode_data5cased7OFFSETS17h95b7494fb51ec0d4E
                0xffff80004024fd14      0x139 bin/obj/rslib.a(core-dca77d77b03929cc.core.bbd04c23a4fa3c72-cgu.0.rcgu.o)
 .rodata._ZN4core7unicode12unicode_data9lowercase17BITSET_CHUNKS_MAP17h2a638f81bf8b8487E
                0xffff80004024fe4d       0x7b bin/obj/rslib.a(core-dca77d77b03929cc.core.bbd04c23a4fa3c72-cgu.0.rcgu.o)
                0xffff80004024fe4d                core::unicode::unicode_data::lowercase::BITSET_CHUNKS_MAP
 .rodata._ZN4core7unicode12unicode_data9uppercase17BITSET_CHUNKS_MAP17h5d7a284dac8f6918E
                0xffff80004024fec8       0x7d bin/obj/rslib.a(core-dca77d77b03929cc.core.bbd04c23a4fa3c72-cgu.0.rcgu.o)
                0xffff80004024fec8                core::unicode::unicode_data::uppercase::BITSET_CHUNKS_MAP
 .rodata..Lanon.f5c1b2728a3d49275cd6fdb50aaed8e0.0
                0xffff80004024ff45        0x3 bin/obj/rslib.a(core-dca77d77b03929cc.core.bbd04c23a4fa3c72-cgu.0.rcgu.o)
 .rodata..Lanon.f5c1b2728a3d49275cd6fdb50aaed8e0.2
                0xffff80004024ff48        0x2 bin/obj/rslib.a(core-dca77d77b03929cc.core.bbd04c23a4fa3c72-cgu.0.rcgu.o)
 *fill*         0xffff80004024ff4a        0x6 
 .rodata..Lanon.f5c1b2728a3d49275cd6fdb50aaed8e0.3
                0xffff80004024ff50       0x10 bin/obj/rslib.a(core-dca77d77b03929cc.core.bbd04c23a4fa3c72-cgu.0.rcgu.o)
 .rodata..Lanon.f5c1b2728a3d49275cd6fdb50aaed8e0.4
                0xffff80004024ff60       0x30 bin/obj/rslib.a(core-dca77d77b03929cc.core.bbd04c23a4fa3c72-cgu.0.rcgu.o)
 .rodata.str1.1
                0xffff80004024ff90        0x0 bin/obj/rslib.a(core-dca77d77b03929cc.core.bbd04c23a4fa3c72-cgu.0.rcgu.o)
                                        0x3ca (size before relaxing)
 .rodata..Lanon.f5c1b2728a3d49275cd6fdb50aaed8e0.7
                0xffff80004024ff90       0x18 bin/obj/rslib.a(core-dca77d77b03929cc.core.bbd04c23a4fa3c72-cgu.0.rcgu.o)
 .rodata..Lanon.f5c1b2728a3d49275cd6fdb50aaed8e0.8
                0xffff80004024ffa8       0x18 bin/obj/rslib.a(core-dca77d77b03929cc.core.bbd04c23a4fa3c72-cgu.0.rcgu.o)
 .rodata..Lanon.f5c1b2728a3d49275cd6fdb50aaed8e0.9
                0xffff80004024ffc0        0x5 bin/obj/rslib.a(core-dca77d77b03929cc.core.bbd04c23a4fa3c72-cgu.0.rcgu.o)
 .rodata.cst4   0xffff80004024ffc5       0x28 bin/obj/rslib.a(core-dca77d77b03929cc.core.bbd04c23a4fa3c72-cgu.0.rcgu.o)
 .rodata..Lanon.f5c1b2728a3d49275cd6fdb50aaed8e0.11
                0xffff80004024ffed       0x2c bin/obj/rslib.a(core-dca77d77b03929cc.core.bbd04c23a4fa3c72-cgu.0.rcgu.o)
 *fill*         0xffff800040250019        0x7 
 .rodata..Lanon.f5c1b2728a3d49275cd6fdb50aaed8e0.12
                0xffff800040250020       0x10 bin/obj/rslib.a(core-dca77d77b03929cc.core.bbd04c23a4fa3c72-cgu.0.rcgu.o)
 .rodata..Lanon.f5c1b2728a3d49275cd6fdb50aaed8e0.13
                0xffff800040250030       0x27 bin/obj/rslib.a(core-dca77d77b03929cc.core.bbd04c23a4fa3c72-cgu.0.rcgu.o)
 *fill*         0xffff800040250057        0x1 
 .rodata..Lanon.f5c1b2728a3d49275cd6fdb50aaed8e0.14
                0xffff800040250058       0x10 bin/obj/rslib.a(core-dca77d77b03929cc.core.bbd04c23a4fa3c72-cgu.0.rcgu.o)
 .rodata..Lanon.f5c1b2728a3d49275cd6fdb50aaed8e0.16
                0xffff800040250068       0x18 bin/obj/rslib.a(core-dca77d77b03929cc.core.bbd04c23a4fa3c72-cgu.0.rcgu.o)
 .rodata..Lanon.f5c1b2728a3d49275cd6fdb50aaed8e0.17
                0xffff800040250080       0x24 bin/obj/rslib.a(core-dca77d77b03929cc.core.bbd04c23a4fa3c72-cgu.0.rcgu.o)
 *fill*         0xffff8000402500a4        0x4 
 .rodata..Lanon.f5c1b2728a3d49275cd6fdb50aaed8e0.19
                0xffff8000402500a8       0x20 bin/obj/rslib.a(core-dca77d77b03929cc.core.bbd04c23a4fa3c72-cgu.0.rcgu.o)
 .rodata..Lanon.f5c1b2728a3d49275cd6fdb50aaed8e0.20
                0xffff8000402500c8       0xc8 bin/obj/rslib.a(core-dca77d77b03929cc.core.bbd04c23a4fa3c72-cgu.0.rcgu.o)
 .rodata..Lanon.f5c1b2728a3d49275cd6fdb50aaed8e0.22
                0xffff800040250190        0x1 bin/obj/rslib.a(core-dca77d77b03929cc.core.bbd04c23a4fa3c72-cgu.0.rcgu.o)
 *fill*         0xffff800040250191        0x7 
 .rodata..Lanon.f5c1b2728a3d49275cd6fdb50aaed8e0.23
                0xffff800040250198       0x18 bin/obj/rslib.a(core-dca77d77b03929cc.core.bbd04c23a4fa3c72-cgu.0.rcgu.o)
 .rodata..Lanon.f5c1b2728a3d49275cd6fdb50aaed8e0.24
                0xffff8000402501b0        0x1 bin/obj/rslib.a(core-dca77d77b03929cc.core.bbd04c23a4fa3c72-cgu.0.rcgu.o)
 *fill*         0xffff8000402501b1        0x7 
 .rodata..Lanon.f5c1b2728a3d49275cd6fdb50aaed8e0.25
                0xffff8000402501b8       0x18 bin/obj/rslib.a(core-dca77d77b03929cc.core.bbd04c23a4fa3c72-cgu.0.rcgu.o)
 .rodata..Lanon.f5c1b2728a3d49275cd6fdb50aaed8e0.26
                0xffff8000402501d0       0x18 bin/obj/rslib.a(core-dca77d77b03929cc.core.bbd04c23a4fa3c72-cgu.0.rcgu.o)
 .rodata..Lanon.f5c1b2728a3d49275cd6fdb50aaed8e0.27
                0xffff8000402501e8        0x1 bin/obj/rslib.a(core-dca77d77b03929cc.core.bbd04c23a4fa3c72-cgu.0.rcgu.o)
 .rodata..Lanon.f5c1b2728a3d49275cd6fdb50aaed8e0.28
                0xffff8000402501e9        0x1 bin/obj/rslib.a(core-dca77d77b03929cc.core.bbd04c23a4fa3c72-cgu.0.rcgu.o)
 .rodata..Lanon.f5c1b2728a3d49275cd6fdb50aaed8e0.30
                0xffff8000402501ea        0x2 bin/obj/rslib.a(core-dca77d77b03929cc.core.bbd04c23a4fa3c72-cgu.0.rcgu.o)
 .rodata..Lanon.f5c1b2728a3d49275cd6fdb50aaed8e0.31
                0xffff8000402501ec        0x2 bin/obj/rslib.a(core-dca77d77b03929cc.core.bbd04c23a4fa3c72-cgu.0.rcgu.o)
 .rodata..Lanon.f5c1b2728a3d49275cd6fdb50aaed8e0.32
                0xffff8000402501ee        0x2 bin/obj/rslib.a(core-dca77d77b03929cc.core.bbd04c23a4fa3c72-cgu.0.rcgu.o)
 .rodata..Lanon.f5c1b2728a3d49275cd6fdb50aaed8e0.35
                0xffff8000402501f0       0x18 bin/obj/rslib.a(core-dca77d77b03929cc.core.bbd04c23a4fa3c72-cgu.0.rcgu.o)
 .rodata..Lanon.f5c1b2728a3d49275cd6fdb50aaed8e0.36
                0xffff800040250208       0x18 bin/obj/rslib.a(core-dca77d77b03929cc.core.bbd04c23a4fa3c72-cgu.0.rcgu.o)
 .rodata..Lanon.f5c1b2728a3d49275cd6fdb50aaed8e0.37
                0xffff800040250220       0x18 bin/obj/rslib.a(core-dca77d77b03929cc.core.bbd04c23a4fa3c72-cgu.0.rcgu.o)
 .rodata..Lanon.f5c1b2728a3d49275cd6fdb50aaed8e0.38
                0xffff800040250238       0x18 bin/obj/rslib.a(core-dca77d77b03929cc.core.bbd04c23a4fa3c72-cgu.0.rcgu.o)
 .rodata..Lanon.f5c1b2728a3d49275cd6fdb50aaed8e0.39
                0xffff800040250250       0x18 bin/obj/rslib.a(core-dca77d77b03929cc.core.bbd04c23a4fa3c72-cgu.0.rcgu.o)
 .rodata..Lanon.f5c1b2728a3d49275cd6fdb50aaed8e0.40
                0xffff800040250268        0x2 bin/obj/rslib.a(core-dca77d77b03929cc.core.bbd04c23a4fa3c72-cgu.0.rcgu.o)
 .rodata..Lanon.f5c1b2728a3d49275cd6fdb50aaed8e0.41
                0xffff80004025026a        0x1 bin/obj/rslib.a(core-dca77d77b03929cc.core.bbd04c23a4fa3c72-cgu.0.rcgu.o)
 .rodata..Lanon.f5c1b2728a3d49275cd6fdb50aaed8e0.42
                0xffff80004025026b        0x2 bin/obj/rslib.a(core-dca77d77b03929cc.core.bbd04c23a4fa3c72-cgu.0.rcgu.o)
 .rodata..Lanon.f5c1b2728a3d49275cd6fdb50aaed8e0.43
                0xffff80004025026d        0x1 bin/obj/rslib.a(core-dca77d77b03929cc.core.bbd04c23a4fa3c72-cgu.0.rcgu.o)
 .rodata..Lanon.f5c1b2728a3d49275cd6fdb50aaed8e0.44
                0xffff80004025026e        0x2 bin/obj/rslib.a(core-dca77d77b03929cc.core.bbd04c23a4fa3c72-cgu.0.rcgu.o)
 .rodata..Lanon.f5c1b2728a3d49275cd6fdb50aaed8e0.46
                0xffff800040250270        0x5 bin/obj/rslib.a(core-dca77d77b03929cc.core.bbd04c23a4fa3c72-cgu.0.rcgu.o)
 .rodata..Lanon.f5c1b2728a3d49275cd6fdb50aaed8e0.47
                0xffff800040250275        0x3 bin/obj/rslib.a(core-dca77d77b03929cc.core.bbd04c23a4fa3c72-cgu.0.rcgu.o)
 .rodata..Lanon.f5c1b2728a3d49275cd6fdb50aaed8e0.48
                0xffff800040250278        0x1 bin/obj/rslib.a(core-dca77d77b03929cc.core.bbd04c23a4fa3c72-cgu.0.rcgu.o)
 .rodata..Lanon.f5c1b2728a3d49275cd6fdb50aaed8e0.49
                0xffff800040250279        0x1 bin/obj/rslib.a(core-dca77d77b03929cc.core.bbd04c23a4fa3c72-cgu.0.rcgu.o)
 *fill*         0xffff80004025027a        0x6 
 .rodata..Lanon.f5c1b2728a3d49275cd6fdb50aaed8e0.50
                0xffff800040250280       0x30 bin/obj/rslib.a(core-dca77d77b03929cc.core.bbd04c23a4fa3c72-cgu.0.rcgu.o)
 .rodata..Lanon.f5c1b2728a3d49275cd6fdb50aaed8e0.51
                0xffff8000402502b0        0x3 bin/obj/rslib.a(core-dca77d77b03929cc.core.bbd04c23a4fa3c72-cgu.0.rcgu.o)
 .rodata..Lanon.f5c1b2728a3d49275cd6fdb50aaed8e0.52
                0xffff8000402502b3        0x2 bin/obj/rslib.a(core-dca77d77b03929cc.core.bbd04c23a4fa3c72-cgu.0.rcgu.o)
 .rodata..Lanon.f5c1b2728a3d49275cd6fdb50aaed8e0.53
                0xffff8000402502b5        0x3 bin/obj/rslib.a(core-dca77d77b03929cc.core.bbd04c23a4fa3c72-cgu.0.rcgu.o)
 .rodata..Lanon.f5c1b2728a3d49275cd6fdb50aaed8e0.54
                0xffff8000402502b8        0x7 bin/obj/rslib.a(core-dca77d77b03929cc.core.bbd04c23a4fa3c72-cgu.0.rcgu.o)
 .rodata..Lanon.f5c1b2728a3d49275cd6fdb50aaed8e0.55
                0xffff8000402502bf        0x6 bin/obj/rslib.a(core-dca77d77b03929cc.core.bbd04c23a4fa3c72-cgu.0.rcgu.o)
 .rodata..Lanon.f5c1b2728a3d49275cd6fdb50aaed8e0.56
                0xffff8000402502c5        0x1 bin/obj/rslib.a(core-dca77d77b03929cc.core.bbd04c23a4fa3c72-cgu.0.rcgu.o)
 .rodata..Lanon.f5c1b2728a3d49275cd6fdb50aaed8e0.57
                0xffff8000402502c6        0x2 bin/obj/rslib.a(core-dca77d77b03929cc.core.bbd04c23a4fa3c72-cgu.0.rcgu.o)
 .rodata..Lanon.f5c1b2728a3d49275cd6fdb50aaed8e0.58
                0xffff8000402502c8        0x1 bin/obj/rslib.a(core-dca77d77b03929cc.core.bbd04c23a4fa3c72-cgu.0.rcgu.o)
 .rodata..Lanon.f5c1b2728a3d49275cd6fdb50aaed8e0.59
                0xffff8000402502c9        0x1 bin/obj/rslib.a(core-dca77d77b03929cc.core.bbd04c23a4fa3c72-cgu.0.rcgu.o)
 .rodata..Lanon.f5c1b2728a3d49275cd6fdb50aaed8e0.60
                0xffff8000402502ca       0x2e bin/obj/rslib.a(core-dca77d77b03929cc.core.bbd04c23a4fa3c72-cgu.0.rcgu.o)
 .rodata..Lanon.f5c1b2728a3d49275cd6fdb50aaed8e0.61
                0xffff8000402502f8       0x10 bin/obj/rslib.a(core-dca77d77b03929cc.core.bbd04c23a4fa3c72-cgu.0.rcgu.o)
 .rodata..Lanon.f5c1b2728a3d49275cd6fdb50aaed8e0.63
                0xffff800040250308       0x18 bin/obj/rslib.a(core-dca77d77b03929cc.core.bbd04c23a4fa3c72-cgu.0.rcgu.o)
 .rodata..Lanon.f5c1b2728a3d49275cd6fdb50aaed8e0.64
                0xffff800040250320        0x3 bin/obj/rslib.a(core-dca77d77b03929cc.core.bbd04c23a4fa3c72-cgu.0.rcgu.o)
 .rodata..Lanon.f5c1b2728a3d49275cd6fdb50aaed8e0.65
                0xffff800040250323        0x5 bin/obj/rslib.a(core-dca77d77b03929cc.core.bbd04c23a4fa3c72-cgu.0.rcgu.o)
 .rodata..Lanon.f5c1b2728a3d49275cd6fdb50aaed8e0.66
                0xffff800040250328       0x2e bin/obj/rslib.a(core-dca77d77b03929cc.core.bbd04c23a4fa3c72-cgu.0.rcgu.o)
 *fill*         0xffff800040250356        0x2 
 .rodata..Lanon.f5c1b2728a3d49275cd6fdb50aaed8e0.67
                0xffff800040250358       0x10 bin/obj/rslib.a(core-dca77d77b03929cc.core.bbd04c23a4fa3c72-cgu.0.rcgu.o)
 .rodata..Lanon.f5c1b2728a3d49275cd6fdb50aaed8e0.68
                0xffff800040250368       0x18 bin/obj/rslib.a(core-dca77d77b03929cc.core.bbd04c23a4fa3c72-cgu.0.rcgu.o)
 .rodata..Lanon.f5c1b2728a3d49275cd6fdb50aaed8e0.69
                0xffff800040250380       0x18 bin/obj/rslib.a(core-dca77d77b03929cc.core.bbd04c23a4fa3c72-cgu.0.rcgu.o)
 .rodata..Lanon.f5c1b2728a3d49275cd6fdb50aaed8e0.70
                0xffff800040250398       0x46 bin/obj/rslib.a(core-dca77d77b03929cc.core.bbd04c23a4fa3c72-cgu.0.rcgu.o)
 *fill*         0xffff8000402503de        0x2 
 .rodata..Lanon.f5c1b2728a3d49275cd6fdb50aaed8e0.71
                0xffff8000402503e0       0x10 bin/obj/rslib.a(core-dca77d77b03929cc.core.bbd04c23a4fa3c72-cgu.0.rcgu.o)
 .rodata..Lanon.f5c1b2728a3d49275cd6fdb50aaed8e0.72
                0xffff8000402503f0       0x18 bin/obj/rslib.a(core-dca77d77b03929cc.core.bbd04c23a4fa3c72-cgu.0.rcgu.o)
 .rodata..Lanon.f5c1b2728a3d49275cd6fdb50aaed8e0.73
                0xffff800040250408        0x3 bin/obj/rslib.a(core-dca77d77b03929cc.core.bbd04c23a4fa3c72-cgu.0.rcgu.o)
 .rodata..Lanon.f5c1b2728a3d49275cd6fdb50aaed8e0.74
                0xffff80004025040b        0x5 bin/obj/rslib.a(core-dca77d77b03929cc.core.bbd04c23a4fa3c72-cgu.0.rcgu.o)
 .rodata..Lanon.f5c1b2728a3d49275cd6fdb50aaed8e0.75
                0xffff800040250410        0x1 bin/obj/rslib.a(core-dca77d77b03929cc.core.bbd04c23a4fa3c72-cgu.0.rcgu.o)
 .rodata..Lanon.f5c1b2728a3d49275cd6fdb50aaed8e0.76
                0xffff800040250411       0x40 bin/obj/rslib.a(core-dca77d77b03929cc.core.bbd04c23a4fa3c72-cgu.0.rcgu.o)
 *fill*         0xffff800040250451        0x7 
 .rodata..Lanon.f5c1b2728a3d49275cd6fdb50aaed8e0.77
                0xffff800040250458       0x18 bin/obj/rslib.a(core-dca77d77b03929cc.core.bbd04c23a4fa3c72-cgu.0.rcgu.o)
 .rodata..Lanon.f5c1b2728a3d49275cd6fdb50aaed8e0.78
                0xffff800040250470       0x20 bin/obj/rslib.a(core-dca77d77b03929cc.core.bbd04c23a4fa3c72-cgu.0.rcgu.o)
 .rodata..Lanon.f5c1b2728a3d49275cd6fdb50aaed8e0.79
                0xffff800040250490       0x18 bin/obj/rslib.a(core-dca77d77b03929cc.core.bbd04c23a4fa3c72-cgu.0.rcgu.o)
 .rodata..Lanon.f5c1b2728a3d49275cd6fdb50aaed8e0.80
                0xffff8000402504a8       0x21 bin/obj/rslib.a(core-dca77d77b03929cc.core.bbd04c23a4fa3c72-cgu.0.rcgu.o)
 .rodata..Lanon.f5c1b2728a3d49275cd6fdb50aaed8e0.81
                0xffff8000402504c9       0x19 bin/obj/rslib.a(core-dca77d77b03929cc.core.bbd04c23a4fa3c72-cgu.0.rcgu.o)
 *fill*         0xffff8000402504e2        0x6 
 .rodata..Lanon.f5c1b2728a3d49275cd6fdb50aaed8e0.82
                0xffff8000402504e8       0x20 bin/obj/rslib.a(core-dca77d77b03929cc.core.bbd04c23a4fa3c72-cgu.0.rcgu.o)
 .rodata..Lanon.f5c1b2728a3d49275cd6fdb50aaed8e0.84
                0xffff800040250508       0x18 bin/obj/rslib.a(core-dca77d77b03929cc.core.bbd04c23a4fa3c72-cgu.0.rcgu.o)
 .rodata..Lanon.f5c1b2728a3d49275cd6fdb50aaed8e0.85
                0xffff800040250520       0x18 bin/obj/rslib.a(core-dca77d77b03929cc.core.bbd04c23a4fa3c72-cgu.0.rcgu.o)
 .rodata..Lanon.f5c1b2728a3d49275cd6fdb50aaed8e0.86
                0xffff800040250538       0x18 bin/obj/rslib.a(core-dca77d77b03929cc.core.bbd04c23a4fa3c72-cgu.0.rcgu.o)
 .rodata..Lanon.f5c1b2728a3d49275cd6fdb50aaed8e0.87
                0xffff800040250550       0x18 bin/obj/rslib.a(core-dca77d77b03929cc.core.bbd04c23a4fa3c72-cgu.0.rcgu.o)
 .rodata..Lanon.f5c1b2728a3d49275cd6fdb50aaed8e0.88
                0xffff800040250568       0x18 bin/obj/rslib.a(core-dca77d77b03929cc.core.bbd04c23a4fa3c72-cgu.0.rcgu.o)
 .rodata..Lanon.f5c1b2728a3d49275cd6fdb50aaed8e0.89
                0xffff800040250580       0x1c bin/obj/rslib.a(core-dca77d77b03929cc.core.bbd04c23a4fa3c72-cgu.0.rcgu.o)
 *fill*         0xffff80004025059c        0x4 
 .rodata..Lanon.f5c1b2728a3d49275cd6fdb50aaed8e0.90
                0xffff8000402505a0       0x10 bin/obj/rslib.a(core-dca77d77b03929cc.core.bbd04c23a4fa3c72-cgu.0.rcgu.o)
 .rodata..Lanon.f5c1b2728a3d49275cd6fdb50aaed8e0.91
                0xffff8000402505b0       0x1f bin/obj/rslib.a(core-dca77d77b03929cc.core.bbd04c23a4fa3c72-cgu.0.rcgu.o)
 *fill*         0xffff8000402505cf        0x1 
 .rodata..Lanon.f5c1b2728a3d49275cd6fdb50aaed8e0.92
                0xffff8000402505d0       0x10 bin/obj/rslib.a(core-dca77d77b03929cc.core.bbd04c23a4fa3c72-cgu.0.rcgu.o)
 .rodata..Lanon.f5c1b2728a3d49275cd6fdb50aaed8e0.93
                0xffff8000402505e0       0x21 bin/obj/rslib.a(core-dca77d77b03929cc.core.bbd04c23a4fa3c72-cgu.0.rcgu.o)
 *fill*         0xffff800040250601        0x7 
 .rodata..Lanon.f5c1b2728a3d49275cd6fdb50aaed8e0.94
                0xffff800040250608       0x10 bin/obj/rslib.a(core-dca77d77b03929cc.core.bbd04c23a4fa3c72-cgu.0.rcgu.o)
 .rodata..Lanon.f5c1b2728a3d49275cd6fdb50aaed8e0.95
                0xffff800040250618       0x1f bin/obj/rslib.a(core-dca77d77b03929cc.core.bbd04c23a4fa3c72-cgu.0.rcgu.o)
 *fill*         0xffff800040250637        0x1 
 .rodata..Lanon.f5c1b2728a3d49275cd6fdb50aaed8e0.96
                0xffff800040250638       0x10 bin/obj/rslib.a(core-dca77d77b03929cc.core.bbd04c23a4fa3c72-cgu.0.rcgu.o)
 .rodata..Lanon.f5c1b2728a3d49275cd6fdb50aaed8e0.97
                0xffff800040250648       0x30 bin/obj/rslib.a(core-dca77d77b03929cc.core.bbd04c23a4fa3c72-cgu.0.rcgu.o)
 .rodata..Lanon.f5c1b2728a3d49275cd6fdb50aaed8e0.98
                0xffff800040250678       0x10 bin/obj/rslib.a(core-dca77d77b03929cc.core.bbd04c23a4fa3c72-cgu.0.rcgu.o)
 .rodata..Lanon.f5c1b2728a3d49275cd6fdb50aaed8e0.99
                0xffff800040250688       0x23 bin/obj/rslib.a(core-dca77d77b03929cc.core.bbd04c23a4fa3c72-cgu.0.rcgu.o)
 *fill*         0xffff8000402506ab        0x5 
 .rodata..Lanon.f5c1b2728a3d49275cd6fdb50aaed8e0.100
                0xffff8000402506b0       0x10 bin/obj/rslib.a(core-dca77d77b03929cc.core.bbd04c23a4fa3c72-cgu.0.rcgu.o)
 .rodata..Lanon.f5c1b2728a3d49275cd6fdb50aaed8e0.101
                0xffff8000402506c0       0x24 bin/obj/rslib.a(core-dca77d77b03929cc.core.bbd04c23a4fa3c72-cgu.0.rcgu.o)
 *fill*         0xffff8000402506e4        0x4 
 .rodata..Lanon.f5c1b2728a3d49275cd6fdb50aaed8e0.102
                0xffff8000402506e8       0x10 bin/obj/rslib.a(core-dca77d77b03929cc.core.bbd04c23a4fa3c72-cgu.0.rcgu.o)
 .rodata..Lanon.f5c1b2728a3d49275cd6fdb50aaed8e0.103
                0xffff8000402506f8       0x21 bin/obj/rslib.a(core-dca77d77b03929cc.core.bbd04c23a4fa3c72-cgu.0.rcgu.o)
 *fill*         0xffff800040250719        0x7 
 .rodata..Lanon.f5c1b2728a3d49275cd6fdb50aaed8e0.104
                0xffff800040250720       0x10 bin/obj/rslib.a(core-dca77d77b03929cc.core.bbd04c23a4fa3c72-cgu.0.rcgu.o)
 .rodata..Lanon.f5c1b2728a3d49275cd6fdb50aaed8e0.105
                0xffff800040250730       0x40 bin/obj/rslib.a(core-dca77d77b03929cc.core.bbd04c23a4fa3c72-cgu.0.rcgu.o)
 .rodata..Lanon.f5c1b2728a3d49275cd6fdb50aaed8e0.106
                0xffff800040250770       0x10 bin/obj/rslib.a(core-dca77d77b03929cc.core.bbd04c23a4fa3c72-cgu.0.rcgu.o)
 .rodata..Lanon.f5c1b2728a3d49275cd6fdb50aaed8e0.108
                0xffff800040250780       0x18 bin/obj/rslib.a(core-dca77d77b03929cc.core.bbd04c23a4fa3c72-cgu.0.rcgu.o)
 .rodata..Lanon.f5c1b2728a3d49275cd6fdb50aaed8e0.109
                0xffff800040250798       0x18 bin/obj/rslib.a(core-dca77d77b03929cc.core.bbd04c23a4fa3c72-cgu.0.rcgu.o)
 .rodata..Lanon.f5c1b2728a3d49275cd6fdb50aaed8e0.110
                0xffff8000402507b0       0x18 bin/obj/rslib.a(core-dca77d77b03929cc.core.bbd04c23a4fa3c72-cgu.0.rcgu.o)
 .rodata..Lanon.f5c1b2728a3d49275cd6fdb50aaed8e0.111
                0xffff8000402507c8       0x18 bin/obj/rslib.a(core-dca77d77b03929cc.core.bbd04c23a4fa3c72-cgu.0.rcgu.o)
 .rodata..Lanon.f5c1b2728a3d49275cd6fdb50aaed8e0.112
                0xffff8000402507e0       0x1b bin/obj/rslib.a(core-dca77d77b03929cc.core.bbd04c23a4fa3c72-cgu.0.rcgu.o)
 .rodata..Lanon.f5c1b2728a3d49275cd6fdb50aaed8e0.113
                0xffff8000402507fb       0x1a bin/obj/rslib.a(core-dca77d77b03929cc.core.bbd04c23a4fa3c72-cgu.0.rcgu.o)
 .rodata..Lanon.f5c1b2728a3d49275cd6fdb50aaed8e0.114
                0xffff800040250815       0x1c bin/obj/rslib.a(core-dca77d77b03929cc.core.bbd04c23a4fa3c72-cgu.0.rcgu.o)
 *fill*         0xffff800040250831        0x7 
 .rodata..Lanon.f5c1b2728a3d49275cd6fdb50aaed8e0.115
                0xffff800040250838       0x18 bin/obj/rslib.a(core-dca77d77b03929cc.core.bbd04c23a4fa3c72-cgu.0.rcgu.o)
 .rodata..Lanon.f5c1b2728a3d49275cd6fdb50aaed8e0.116
                0xffff800040250850       0x1d bin/obj/rslib.a(core-dca77d77b03929cc.core.bbd04c23a4fa3c72-cgu.0.rcgu.o)
 *fill*         0xffff80004025086d        0x3 
 .rodata..Lanon.f5c1b2728a3d49275cd6fdb50aaed8e0.118
                0xffff800040250870       0x18 bin/obj/rslib.a(core-dca77d77b03929cc.core.bbd04c23a4fa3c72-cgu.0.rcgu.o)
 .rodata..Lanon.f5c1b2728a3d49275cd6fdb50aaed8e0.119
                0xffff800040250888       0x18 bin/obj/rslib.a(core-dca77d77b03929cc.core.bbd04c23a4fa3c72-cgu.0.rcgu.o)
 .rodata..Lanon.f5c1b2728a3d49275cd6fdb50aaed8e0.120
                0xffff8000402508a0       0x18 bin/obj/rslib.a(core-dca77d77b03929cc.core.bbd04c23a4fa3c72-cgu.0.rcgu.o)
 .rodata..Lanon.f5c1b2728a3d49275cd6fdb50aaed8e0.121
                0xffff8000402508b8       0x18 bin/obj/rslib.a(core-dca77d77b03929cc.core.bbd04c23a4fa3c72-cgu.0.rcgu.o)
 .rodata..Lanon.f5c1b2728a3d49275cd6fdb50aaed8e0.122
                0xffff8000402508d0       0x18 bin/obj/rslib.a(core-dca77d77b03929cc.core.bbd04c23a4fa3c72-cgu.0.rcgu.o)
 .rodata..Lanon.f5c1b2728a3d49275cd6fdb50aaed8e0.123
                0xffff8000402508e8       0x18 bin/obj/rslib.a(core-dca77d77b03929cc.core.bbd04c23a4fa3c72-cgu.0.rcgu.o)
 .rodata..Lanon.f5c1b2728a3d49275cd6fdb50aaed8e0.124
                0xffff800040250900       0x82 bin/obj/rslib.a(core-dca77d77b03929cc.core.bbd04c23a4fa3c72-cgu.0.rcgu.o)
 .rodata..Lanon.f5c1b2728a3d49275cd6fdb50aaed8e0.125
                0xffff800040250982      0x51c bin/obj/rslib.a(core-dca77d77b03929cc.core.bbd04c23a4fa3c72-cgu.0.rcgu.o)
 *fill*         0xffff800040250e9e        0x2 
 .rodata..Lanon.f5c1b2728a3d49275cd6fdb50aaed8e0.126
                0xffff800040250ea0       0x18 bin/obj/rslib.a(core-dca77d77b03929cc.core.bbd04c23a4fa3c72-cgu.0.rcgu.o)
 .rodata..Lanon.f5c1b2728a3d49275cd6fdb50aaed8e0.127
                0xffff800040250eb8       0x18 bin/obj/rslib.a(core-dca77d77b03929cc.core.bbd04c23a4fa3c72-cgu.0.rcgu.o)
 .rodata..Lanon.f5c1b2728a3d49275cd6fdb50aaed8e0.128
                0xffff800040250ed0       0x13 bin/obj/rslib.a(core-dca77d77b03929cc.core.bbd04c23a4fa3c72-cgu.0.rcgu.o)
 *fill*         0xffff800040250ee3        0x5 
 .rodata..Lanon.f5c1b2728a3d49275cd6fdb50aaed8e0.130
                0xffff800040250ee8       0x18 bin/obj/rslib.a(core-dca77d77b03929cc.core.bbd04c23a4fa3c72-cgu.0.rcgu.o)
 .rodata._ZN4core3num7dec2flt5table17POWER_OF_FIVE_12817h18673f325556fc0aE
                0xffff800040250f00     0x28b0 bin/obj/rslib.a(core-dca77d77b03929cc.core.bbd04c23a4fa3c72-cgu.0.rcgu.o)
 .rodata..Lanon.f5c1b2728a3d49275cd6fdb50aaed8e0.132
                0xffff8000402537b0       0x18 bin/obj/rslib.a(core-dca77d77b03929cc.core.bbd04c23a4fa3c72-cgu.0.rcgu.o)
 .rodata..Lanon.f5c1b2728a3d49275cd6fdb50aaed8e0.133
                0xffff8000402537c8       0x80 bin/obj/rslib.a(core-dca77d77b03929cc.core.bbd04c23a4fa3c72-cgu.0.rcgu.o)
 .rodata..Lanon.f5c1b2728a3d49275cd6fdb50aaed8e0.134
                0xffff800040253848       0x22 bin/obj/rslib.a(core-dca77d77b03929cc.core.bbd04c23a4fa3c72-cgu.0.rcgu.o)
 .rodata..Lanon.f5c1b2728a3d49275cd6fdb50aaed8e0.136
                0xffff80004025386a       0x2d bin/obj/rslib.a(core-dca77d77b03929cc.core.bbd04c23a4fa3c72-cgu.0.rcgu.o)
 .rodata..Lanon.f5c1b2728a3d49275cd6fdb50aaed8e0.137
                0xffff800040253897        0x3 bin/obj/rslib.a(core-dca77d77b03929cc.core.bbd04c23a4fa3c72-cgu.0.rcgu.o)
 .rodata..Lanon.f5c1b2728a3d49275cd6fdb50aaed8e0.138
                0xffff80004025389a        0x3 bin/obj/rslib.a(core-dca77d77b03929cc.core.bbd04c23a4fa3c72-cgu.0.rcgu.o)
 .rodata..Lanon.f5c1b2728a3d49275cd6fdb50aaed8e0.139
                0xffff80004025389d        0x2 bin/obj/rslib.a(core-dca77d77b03929cc.core.bbd04c23a4fa3c72-cgu.0.rcgu.o)
 .rodata..Lanon.f5c1b2728a3d49275cd6fdb50aaed8e0.140
                0xffff80004025389f       0x22 bin/obj/rslib.a(core-dca77d77b03929cc.core.bbd04c23a4fa3c72-cgu.0.rcgu.o)
 .rodata..Lanon.f5c1b2728a3d49275cd6fdb50aaed8e0.141
                0xffff8000402538c1       0x1d bin/obj/rslib.a(core-dca77d77b03929cc.core.bbd04c23a4fa3c72-cgu.0.rcgu.o)
 *fill*         0xffff8000402538de        0x2 
 .rodata..Lanon.f5c1b2728a3d49275cd6fdb50aaed8e0.142
                0xffff8000402538e0       0x18 bin/obj/rslib.a(core-dca77d77b03929cc.core.bbd04c23a4fa3c72-cgu.0.rcgu.o)
 .rodata..Lanon.f5c1b2728a3d49275cd6fdb50aaed8e0.143
                0xffff8000402538f8        0x3 bin/obj/rslib.a(core-dca77d77b03929cc.core.bbd04c23a4fa3c72-cgu.0.rcgu.o)
 .rodata..Lanon.f5c1b2728a3d49275cd6fdb50aaed8e0.144
                0xffff8000402538fb        0x3 bin/obj/rslib.a(core-dca77d77b03929cc.core.bbd04c23a4fa3c72-cgu.0.rcgu.o)
 .rodata..Lanon.f5c1b2728a3d49275cd6fdb50aaed8e0.145
                0xffff8000402538fe        0x2 bin/obj/rslib.a(core-dca77d77b03929cc.core.bbd04c23a4fa3c72-cgu.0.rcgu.o)
 .rodata..Lanon.f5c1b2728a3d49275cd6fdb50aaed8e0.146
                0xffff800040253900        0x2 bin/obj/rslib.a(core-dca77d77b03929cc.core.bbd04c23a4fa3c72-cgu.0.rcgu.o)
 .rodata..Lanon.f5c1b2728a3d49275cd6fdb50aaed8e0.147
                0xffff800040253902       0x3d bin/obj/rslib.a(core-dca77d77b03929cc.core.bbd04c23a4fa3c72-cgu.0.rcgu.o)
 *fill*         0xffff80004025393f        0x1 
 .rodata..Lanon.f5c1b2728a3d49275cd6fdb50aaed8e0.148
                0xffff800040253940       0x18 bin/obj/rslib.a(core-dca77d77b03929cc.core.bbd04c23a4fa3c72-cgu.0.rcgu.o)
 .rodata..Lanon.f5c1b2728a3d49275cd6fdb50aaed8e0.149
                0xffff800040253958       0x18 bin/obj/rslib.a(core-dca77d77b03929cc.core.bbd04c23a4fa3c72-cgu.0.rcgu.o)
 .rodata..Lanon.f5c1b2728a3d49275cd6fdb50aaed8e0.150
                0xffff800040253970       0x21 bin/obj/rslib.a(core-dca77d77b03929cc.core.bbd04c23a4fa3c72-cgu.0.rcgu.o)
 *fill*         0xffff800040253991        0x7 
 .rodata..Lanon.f5c1b2728a3d49275cd6fdb50aaed8e0.151
                0xffff800040253998       0x18 bin/obj/rslib.a(core-dca77d77b03929cc.core.bbd04c23a4fa3c72-cgu.0.rcgu.o)
 .rodata..Lanon.f5c1b2728a3d49275cd6fdb50aaed8e0.152
                0xffff8000402539b0       0x1f bin/obj/rslib.a(core-dca77d77b03929cc.core.bbd04c23a4fa3c72-cgu.0.rcgu.o)
 *fill*         0xffff8000402539cf        0x1 
 .rodata..Lanon.f5c1b2728a3d49275cd6fdb50aaed8e0.153
                0xffff8000402539d0       0x18 bin/obj/rslib.a(core-dca77d77b03929cc.core.bbd04c23a4fa3c72-cgu.0.rcgu.o)
 .rodata..Lanon.f5c1b2728a3d49275cd6fdb50aaed8e0.154
                0xffff8000402539e8       0x18 bin/obj/rslib.a(core-dca77d77b03929cc.core.bbd04c23a4fa3c72-cgu.0.rcgu.o)
 .rodata..Lanon.f5c1b2728a3d49275cd6fdb50aaed8e0.155
                0xffff800040253a00       0x18 bin/obj/rslib.a(core-dca77d77b03929cc.core.bbd04c23a4fa3c72-cgu.0.rcgu.o)
 .rodata..Lanon.f5c1b2728a3d49275cd6fdb50aaed8e0.156
                0xffff800040253a18       0x18 bin/obj/rslib.a(core-dca77d77b03929cc.core.bbd04c23a4fa3c72-cgu.0.rcgu.o)
 .rodata..Lanon.f5c1b2728a3d49275cd6fdb50aaed8e0.157
                0xffff800040253a30       0x18 bin/obj/rslib.a(core-dca77d77b03929cc.core.bbd04c23a4fa3c72-cgu.0.rcgu.o)
 .rodata..Lanon.f5c1b2728a3d49275cd6fdb50aaed8e0.158
                0xffff800040253a48        0x1 bin/obj/rslib.a(core-dca77d77b03929cc.core.bbd04c23a4fa3c72-cgu.0.rcgu.o)
 .rodata..Lanon.f5c1b2728a3d49275cd6fdb50aaed8e0.159
                0xffff800040253a49        0x1 bin/obj/rslib.a(core-dca77d77b03929cc.core.bbd04c23a4fa3c72-cgu.0.rcgu.o)
 .rodata..Lanon.f5c1b2728a3d49275cd6fdb50aaed8e0.160
                0xffff800040253a4a        0x2 bin/obj/rslib.a(core-dca77d77b03929cc.core.bbd04c23a4fa3c72-cgu.0.rcgu.o)
 .rodata..Lanon.f5c1b2728a3d49275cd6fdb50aaed8e0.161
                0xffff800040253a4c        0x2 bin/obj/rslib.a(core-dca77d77b03929cc.core.bbd04c23a4fa3c72-cgu.0.rcgu.o)
 .rodata..Lanon.f5c1b2728a3d49275cd6fdb50aaed8e0.162
                0xffff800040253a4e       0x25 bin/obj/rslib.a(core-dca77d77b03929cc.core.bbd04c23a4fa3c72-cgu.0.rcgu.o)
 *fill*         0xffff800040253a73        0x5 
 .rodata..Lanon.f5c1b2728a3d49275cd6fdb50aaed8e0.163
                0xffff800040253a78       0x18 bin/obj/rslib.a(core-dca77d77b03929cc.core.bbd04c23a4fa3c72-cgu.0.rcgu.o)
 .rodata..Lanon.f5c1b2728a3d49275cd6fdb50aaed8e0.164
                0xffff800040253a90       0x18 bin/obj/rslib.a(core-dca77d77b03929cc.core.bbd04c23a4fa3c72-cgu.0.rcgu.o)
 .rodata._ZN4core3num7flt2dec8strategy5grisu12CACHED_POW1017hcf67db5dacd374a4E
                0xffff800040253aa8      0x510 bin/obj/rslib.a(core-dca77d77b03929cc.core.bbd04c23a4fa3c72-cgu.0.rcgu.o)
                0xffff800040253aa8                core::num::flt2dec::strategy::grisu::CACHED_POW10
 .rodata..Lanon.f5c1b2728a3d49275cd6fdb50aaed8e0.166
                0xffff800040253fb8       0x18 bin/obj/rslib.a(core-dca77d77b03929cc.core.bbd04c23a4fa3c72-cgu.0.rcgu.o)
 .rodata..Lanon.f5c1b2728a3d49275cd6fdb50aaed8e0.167
                0xffff800040253fd0       0x18 bin/obj/rslib.a(core-dca77d77b03929cc.core.bbd04c23a4fa3c72-cgu.0.rcgu.o)
 .rodata..Lanon.f5c1b2728a3d49275cd6fdb50aaed8e0.168
                0xffff800040253fe8       0x18 bin/obj/rslib.a(core-dca77d77b03929cc.core.bbd04c23a4fa3c72-cgu.0.rcgu.o)
 .rodata..Lanon.f5c1b2728a3d49275cd6fdb50aaed8e0.169
                0xffff800040254000       0x18 bin/obj/rslib.a(core-dca77d77b03929cc.core.bbd04c23a4fa3c72-cgu.0.rcgu.o)
 .rodata..Lanon.f5c1b2728a3d49275cd6fdb50aaed8e0.170
                0xffff800040254018       0x1c bin/obj/rslib.a(core-dca77d77b03929cc.core.bbd04c23a4fa3c72-cgu.0.rcgu.o)
 *fill*         0xffff800040254034        0x4 
 .rodata..Lanon.f5c1b2728a3d49275cd6fdb50aaed8e0.171
                0xffff800040254038       0x18 bin/obj/rslib.a(core-dca77d77b03929cc.core.bbd04c23a4fa3c72-cgu.0.rcgu.o)
 .rodata..Lanon.f5c1b2728a3d49275cd6fdb50aaed8e0.172
                0xffff800040254050       0x24 bin/obj/rslib.a(core-dca77d77b03929cc.core.bbd04c23a4fa3c72-cgu.0.rcgu.o)
 *fill*         0xffff800040254074        0x4 
 .rodata..Lanon.f5c1b2728a3d49275cd6fdb50aaed8e0.173
                0xffff800040254078       0x18 bin/obj/rslib.a(core-dca77d77b03929cc.core.bbd04c23a4fa3c72-cgu.0.rcgu.o)
 .rodata..Lanon.f5c1b2728a3d49275cd6fdb50aaed8e0.174
                0xffff800040254090       0x18 bin/obj/rslib.a(core-dca77d77b03929cc.core.bbd04c23a4fa3c72-cgu.0.rcgu.o)
 .rodata..Lanon.f5c1b2728a3d49275cd6fdb50aaed8e0.176
                0xffff8000402540a8       0x18 bin/obj/rslib.a(core-dca77d77b03929cc.core.bbd04c23a4fa3c72-cgu.0.rcgu.o)
 .rodata..Lanon.f5c1b2728a3d49275cd6fdb50aaed8e0.177
                0xffff8000402540c0       0x18 bin/obj/rslib.a(core-dca77d77b03929cc.core.bbd04c23a4fa3c72-cgu.0.rcgu.o)
 .rodata..Lanon.f5c1b2728a3d49275cd6fdb50aaed8e0.178
                0xffff8000402540d8       0x18 bin/obj/rslib.a(core-dca77d77b03929cc.core.bbd04c23a4fa3c72-cgu.0.rcgu.o)
 .rodata..Lanon.f5c1b2728a3d49275cd6fdb50aaed8e0.179
                0xffff8000402540f0       0x18 bin/obj/rslib.a(core-dca77d77b03929cc.core.bbd04c23a4fa3c72-cgu.0.rcgu.o)
 .rodata..Lanon.f5c1b2728a3d49275cd6fdb50aaed8e0.180
                0xffff800040254108       0x1d bin/obj/rslib.a(core-dca77d77b03929cc.core.bbd04c23a4fa3c72-cgu.0.rcgu.o)
 *fill*         0xffff800040254125        0x3 
 .rodata..Lanon.f5c1b2728a3d49275cd6fdb50aaed8e0.181
                0xffff800040254128       0x18 bin/obj/rslib.a(core-dca77d77b03929cc.core.bbd04c23a4fa3c72-cgu.0.rcgu.o)
 .rodata..Lanon.f5c1b2728a3d49275cd6fdb50aaed8e0.182
                0xffff800040254140       0x1c bin/obj/rslib.a(core-dca77d77b03929cc.core.bbd04c23a4fa3c72-cgu.0.rcgu.o)
 *fill*         0xffff80004025415c        0x4 
 .rodata..Lanon.f5c1b2728a3d49275cd6fdb50aaed8e0.183
                0xffff800040254160       0x18 bin/obj/rslib.a(core-dca77d77b03929cc.core.bbd04c23a4fa3c72-cgu.0.rcgu.o)
 .rodata..Lanon.f5c1b2728a3d49275cd6fdb50aaed8e0.184
                0xffff800040254178       0x18 bin/obj/rslib.a(core-dca77d77b03929cc.core.bbd04c23a4fa3c72-cgu.0.rcgu.o)
 .rodata..Lanon.f5c1b2728a3d49275cd6fdb50aaed8e0.185
                0xffff800040254190       0x2d bin/obj/rslib.a(core-dca77d77b03929cc.core.bbd04c23a4fa3c72-cgu.0.rcgu.o)
 *fill*         0xffff8000402541bd        0x3 
 .rodata..Lanon.f5c1b2728a3d49275cd6fdb50aaed8e0.186
                0xffff8000402541c0       0x18 bin/obj/rslib.a(core-dca77d77b03929cc.core.bbd04c23a4fa3c72-cgu.0.rcgu.o)
 .rodata..Lanon.f5c1b2728a3d49275cd6fdb50aaed8e0.187
                0xffff8000402541d8       0x18 bin/obj/rslib.a(core-dca77d77b03929cc.core.bbd04c23a4fa3c72-cgu.0.rcgu.o)
 .rodata..Lanon.f5c1b2728a3d49275cd6fdb50aaed8e0.188
                0xffff8000402541f0       0x18 bin/obj/rslib.a(core-dca77d77b03929cc.core.bbd04c23a4fa3c72-cgu.0.rcgu.o)
 .rodata..Lanon.f5c1b2728a3d49275cd6fdb50aaed8e0.189
                0xffff800040254208       0x18 bin/obj/rslib.a(core-dca77d77b03929cc.core.bbd04c23a4fa3c72-cgu.0.rcgu.o)
 .rodata..Lanon.f5c1b2728a3d49275cd6fdb50aaed8e0.190
                0xffff800040254220       0x37 bin/obj/rslib.a(core-dca77d77b03929cc.core.bbd04c23a4fa3c72-cgu.0.rcgu.o)
 *fill*         0xffff800040254257        0x1 
 .rodata..Lanon.f5c1b2728a3d49275cd6fdb50aaed8e0.191
                0xffff800040254258       0x18 bin/obj/rslib.a(core-dca77d77b03929cc.core.bbd04c23a4fa3c72-cgu.0.rcgu.o)
 .rodata..Lanon.f5c1b2728a3d49275cd6fdb50aaed8e0.192
                0xffff800040254270       0x36 bin/obj/rslib.a(core-dca77d77b03929cc.core.bbd04c23a4fa3c72-cgu.0.rcgu.o)
 *fill*         0xffff8000402542a6        0x2 
 .rodata..Lanon.f5c1b2728a3d49275cd6fdb50aaed8e0.193
                0xffff8000402542a8       0x18 bin/obj/rslib.a(core-dca77d77b03929cc.core.bbd04c23a4fa3c72-cgu.0.rcgu.o)
 .rodata..Lanon.f5c1b2728a3d49275cd6fdb50aaed8e0.195
                0xffff8000402542c0       0x18 bin/obj/rslib.a(core-dca77d77b03929cc.core.bbd04c23a4fa3c72-cgu.0.rcgu.o)
 .rodata..Lanon.f5c1b2728a3d49275cd6fdb50aaed8e0.196
                0xffff8000402542d8       0x18 bin/obj/rslib.a(core-dca77d77b03929cc.core.bbd04c23a4fa3c72-cgu.0.rcgu.o)
 .rodata..Lanon.f5c1b2728a3d49275cd6fdb50aaed8e0.197
                0xffff8000402542f0       0x18 bin/obj/rslib.a(core-dca77d77b03929cc.core.bbd04c23a4fa3c72-cgu.0.rcgu.o)
 .rodata..Lanon.f5c1b2728a3d49275cd6fdb50aaed8e0.198
                0xffff800040254308       0x18 bin/obj/rslib.a(core-dca77d77b03929cc.core.bbd04c23a4fa3c72-cgu.0.rcgu.o)
 .rodata..Lanon.f5c1b2728a3d49275cd6fdb50aaed8e0.199
                0xffff800040254320       0x18 bin/obj/rslib.a(core-dca77d77b03929cc.core.bbd04c23a4fa3c72-cgu.0.rcgu.o)
 .rodata..Lanon.f5c1b2728a3d49275cd6fdb50aaed8e0.200
                0xffff800040254338       0x18 bin/obj/rslib.a(core-dca77d77b03929cc.core.bbd04c23a4fa3c72-cgu.0.rcgu.o)
 .rodata..Lanon.f5c1b2728a3d49275cd6fdb50aaed8e0.201
                0xffff800040254350       0x18 bin/obj/rslib.a(core-dca77d77b03929cc.core.bbd04c23a4fa3c72-cgu.0.rcgu.o)
 .rodata..Lanon.f5c1b2728a3d49275cd6fdb50aaed8e0.202
                0xffff800040254368       0x18 bin/obj/rslib.a(core-dca77d77b03929cc.core.bbd04c23a4fa3c72-cgu.0.rcgu.o)
 .rodata..Lanon.f5c1b2728a3d49275cd6fdb50aaed8e0.203
                0xffff800040254380       0x18 bin/obj/rslib.a(core-dca77d77b03929cc.core.bbd04c23a4fa3c72-cgu.0.rcgu.o)
 .rodata..Lanon.f5c1b2728a3d49275cd6fdb50aaed8e0.204
                0xffff800040254398       0x18 bin/obj/rslib.a(core-dca77d77b03929cc.core.bbd04c23a4fa3c72-cgu.0.rcgu.o)
 .rodata..Lanon.f5c1b2728a3d49275cd6fdb50aaed8e0.205
                0xffff8000402543b0       0x18 bin/obj/rslib.a(core-dca77d77b03929cc.core.bbd04c23a4fa3c72-cgu.0.rcgu.o)
 .rodata..Lanon.f5c1b2728a3d49275cd6fdb50aaed8e0.206
                0xffff8000402543c8       0x18 bin/obj/rslib.a(core-dca77d77b03929cc.core.bbd04c23a4fa3c72-cgu.0.rcgu.o)
 .rodata..Lanon.f5c1b2728a3d49275cd6fdb50aaed8e0.207
                0xffff8000402543e0       0x18 bin/obj/rslib.a(core-dca77d77b03929cc.core.bbd04c23a4fa3c72-cgu.0.rcgu.o)
 .rodata..Lanon.f5c1b2728a3d49275cd6fdb50aaed8e0.208
                0xffff8000402543f8       0x18 bin/obj/rslib.a(core-dca77d77b03929cc.core.bbd04c23a4fa3c72-cgu.0.rcgu.o)
 .rodata..Lanon.f5c1b2728a3d49275cd6fdb50aaed8e0.209
                0xffff800040254410       0x18 bin/obj/rslib.a(core-dca77d77b03929cc.core.bbd04c23a4fa3c72-cgu.0.rcgu.o)
 .rodata..Lanon.f5c1b2728a3d49275cd6fdb50aaed8e0.210
                0xffff800040254428       0x18 bin/obj/rslib.a(core-dca77d77b03929cc.core.bbd04c23a4fa3c72-cgu.0.rcgu.o)
 .rodata..Lanon.f5c1b2728a3d49275cd6fdb50aaed8e0.211
                0xffff800040254440       0x18 bin/obj/rslib.a(core-dca77d77b03929cc.core.bbd04c23a4fa3c72-cgu.0.rcgu.o)
 .rodata..Lanon.f5c1b2728a3d49275cd6fdb50aaed8e0.212
                0xffff800040254458       0x18 bin/obj/rslib.a(core-dca77d77b03929cc.core.bbd04c23a4fa3c72-cgu.0.rcgu.o)
 .rodata..Lanon.f5c1b2728a3d49275cd6fdb50aaed8e0.213
                0xffff800040254470       0x18 bin/obj/rslib.a(core-dca77d77b03929cc.core.bbd04c23a4fa3c72-cgu.0.rcgu.o)
 .rodata._ZN4core3num7flt2dec8strategy6dragon5POW1017h5f5d559c8bd8b44fE
                0xffff800040254488       0x28 bin/obj/rslib.a(core-dca77d77b03929cc.core.bbd04c23a4fa3c72-cgu.0.rcgu.o)
 .rodata._ZN4core3num7flt2dec8strategy6dragon8POW5TO1617h2fd5bfb1d80454daE
                0xffff8000402544b0        0x8 bin/obj/rslib.a(core-dca77d77b03929cc.core.bbd04c23a4fa3c72-cgu.0.rcgu.o)
 .rodata._ZN4core3num7flt2dec8strategy6dragon8POW5TO3217h81321867817768eeE
                0xffff8000402544b8        0xc bin/obj/rslib.a(core-dca77d77b03929cc.core.bbd04c23a4fa3c72-cgu.0.rcgu.o)
 .rodata._ZN4core3num7flt2dec8strategy6dragon8POW5TO6417h9d87f63fe8e9f23eE
                0xffff8000402544c4       0x14 bin/obj/rslib.a(core-dca77d77b03929cc.core.bbd04c23a4fa3c72-cgu.0.rcgu.o)
 .rodata._ZN4core3num7flt2dec8strategy6dragon9POW5TO12817h20e8ea28ab25cbb4E
                0xffff8000402544d8       0x28 bin/obj/rslib.a(core-dca77d77b03929cc.core.bbd04c23a4fa3c72-cgu.0.rcgu.o)
 .rodata._ZN4core3num7flt2dec8strategy6dragon9POW5TO25617h4074b8ecbdf1ee4bE
                0xffff800040254500       0x4c bin/obj/rslib.a(core-dca77d77b03929cc.core.bbd04c23a4fa3c72-cgu.0.rcgu.o)
 .rodata..Lanon.f5c1b2728a3d49275cd6fdb50aaed8e0.214
                0xffff80004025454c       0x32 bin/obj/rslib.a(core-dca77d77b03929cc.core.bbd04c23a4fa3c72-cgu.0.rcgu.o)
 *fill*         0xffff80004025457e        0x2 
 .rodata..Lanon.f5c1b2728a3d49275cd6fdb50aaed8e0.215
                0xffff800040254580       0x10 bin/obj/rslib.a(core-dca77d77b03929cc.core.bbd04c23a4fa3c72-cgu.0.rcgu.o)
 .rodata..Lanon.f5c1b2728a3d49275cd6fdb50aaed8e0.216
                0xffff800040254590       0x1d bin/obj/rslib.a(core-dca77d77b03929cc.core.bbd04c23a4fa3c72-cgu.0.rcgu.o)
 *fill*         0xffff8000402545ad        0x3 
 .rodata..Lanon.f5c1b2728a3d49275cd6fdb50aaed8e0.218
                0xffff8000402545b0       0x18 bin/obj/rslib.a(core-dca77d77b03929cc.core.bbd04c23a4fa3c72-cgu.0.rcgu.o)
 .rodata..Lanon.f5c1b2728a3d49275cd6fdb50aaed8e0.219
                0xffff8000402545c8       0x18 bin/obj/rslib.a(core-dca77d77b03929cc.core.bbd04c23a4fa3c72-cgu.0.rcgu.o)
 .rodata..Lanon.f5c1b2728a3d49275cd6fdb50aaed8e0.220
                0xffff8000402545e0       0x2e bin/obj/rslib.a(core-dca77d77b03929cc.core.bbd04c23a4fa3c72-cgu.0.rcgu.o)
 *fill*         0xffff80004025460e        0x2 
 .rodata..Lanon.f5c1b2728a3d49275cd6fdb50aaed8e0.221
                0xffff800040254610       0x10 bin/obj/rslib.a(core-dca77d77b03929cc.core.bbd04c23a4fa3c72-cgu.0.rcgu.o)
 .rodata..Lanon.f5c1b2728a3d49275cd6fdb50aaed8e0.222
                0xffff800040254620      0x100 bin/obj/rslib.a(core-dca77d77b03929cc.core.bbd04c23a4fa3c72-cgu.0.rcgu.o)
 .rodata..Lanon.f5c1b2728a3d49275cd6fdb50aaed8e0.223
                0xffff800040254720       0x16 bin/obj/rslib.a(core-dca77d77b03929cc.core.bbd04c23a4fa3c72-cgu.0.rcgu.o)
 *fill*         0xffff800040254736        0x2 
 .rodata..Lanon.f5c1b2728a3d49275cd6fdb50aaed8e0.224
                0xffff800040254738       0x10 bin/obj/rslib.a(core-dca77d77b03929cc.core.bbd04c23a4fa3c72-cgu.0.rcgu.o)
 .rodata..Lanon.f5c1b2728a3d49275cd6fdb50aaed8e0.225
                0xffff800040254748        0x5 bin/obj/rslib.a(core-dca77d77b03929cc.core.bbd04c23a4fa3c72-cgu.0.rcgu.o)
 .rodata..Lanon.f5c1b2728a3d49275cd6fdb50aaed8e0.226
                0xffff80004025474d        0xe bin/obj/rslib.a(core-dca77d77b03929cc.core.bbd04c23a4fa3c72-cgu.0.rcgu.o)
 .rodata..Lanon.f5c1b2728a3d49275cd6fdb50aaed8e0.229
                0xffff80004025475b        0x1 bin/obj/rslib.a(core-dca77d77b03929cc.core.bbd04c23a4fa3c72-cgu.0.rcgu.o)
 *fill*         0xffff80004025475c        0x4 
 .rodata..Lanon.f5c1b2728a3d49275cd6fdb50aaed8e0.230
                0xffff800040254760       0x40 bin/obj/rslib.a(core-dca77d77b03929cc.core.bbd04c23a4fa3c72-cgu.0.rcgu.o)
 .rodata..Lanon.f5c1b2728a3d49275cd6fdb50aaed8e0.231
                0xffff8000402547a0        0xb bin/obj/rslib.a(core-dca77d77b03929cc.core.bbd04c23a4fa3c72-cgu.0.rcgu.o)
 .rodata..Lanon.f5c1b2728a3d49275cd6fdb50aaed8e0.232
                0xffff8000402547ab       0x26 bin/obj/rslib.a(core-dca77d77b03929cc.core.bbd04c23a4fa3c72-cgu.0.rcgu.o)
 .rodata..Lanon.f5c1b2728a3d49275cd6fdb50aaed8e0.234
                0xffff8000402547d1        0x6 bin/obj/rslib.a(core-dca77d77b03929cc.core.bbd04c23a4fa3c72-cgu.0.rcgu.o)
 *fill*         0xffff8000402547d7        0x1 
 .rodata..Lanon.f5c1b2728a3d49275cd6fdb50aaed8e0.235
                0xffff8000402547d8       0x50 bin/obj/rslib.a(core-dca77d77b03929cc.core.bbd04c23a4fa3c72-cgu.0.rcgu.o)
 .rodata..Lanon.f5c1b2728a3d49275cd6fdb50aaed8e0.236
                0xffff800040254828       0x16 bin/obj/rslib.a(core-dca77d77b03929cc.core.bbd04c23a4fa3c72-cgu.0.rcgu.o)
 *fill*         0xffff80004025483e        0x2 
 .rodata..Lanon.f5c1b2728a3d49275cd6fdb50aaed8e0.237
                0xffff800040254840       0x30 bin/obj/rslib.a(core-dca77d77b03929cc.core.bbd04c23a4fa3c72-cgu.0.rcgu.o)
 .rodata..Lanon.f5c1b2728a3d49275cd6fdb50aaed8e0.238
                0xffff800040254870       0x2a bin/obj/rslib.a(core-dca77d77b03929cc.core.bbd04c23a4fa3c72-cgu.0.rcgu.o)
 *fill*         0xffff80004025489a        0x6 
 .rodata..Lanon.f5c1b2728a3d49275cd6fdb50aaed8e0.239
                0xffff8000402548a0       0x10 bin/obj/rslib.a(core-dca77d77b03929cc.core.bbd04c23a4fa3c72-cgu.0.rcgu.o)
 .rodata..Lanon.f5c1b2728a3d49275cd6fdb50aaed8e0.241
                0xffff8000402548b0       0x18 bin/obj/rslib.a(core-dca77d77b03929cc.core.bbd04c23a4fa3c72-cgu.0.rcgu.o)
 .rodata..Lanon.f5c1b2728a3d49275cd6fdb50aaed8e0.242
                0xffff8000402548c8       0x18 bin/obj/rslib.a(core-dca77d77b03929cc.core.bbd04c23a4fa3c72-cgu.0.rcgu.o)
 .rodata..Lanon.f5c1b2728a3d49275cd6fdb50aaed8e0.243
                0xffff8000402548e0       0x18 bin/obj/rslib.a(core-dca77d77b03929cc.core.bbd04c23a4fa3c72-cgu.0.rcgu.o)
 .rodata..Lanon.f5c1b2728a3d49275cd6fdb50aaed8e0.244
                0xffff8000402548f8       0x18 bin/obj/rslib.a(core-dca77d77b03929cc.core.bbd04c23a4fa3c72-cgu.0.rcgu.o)
 .rodata..Lanon.f5c1b2728a3d49275cd6fdb50aaed8e0.245
                0xffff800040254910       0x18 bin/obj/rslib.a(core-dca77d77b03929cc.core.bbd04c23a4fa3c72-cgu.0.rcgu.o)
 .rodata..Lanon.f5c1b2728a3d49275cd6fdb50aaed8e0.246
                0xffff800040254928       0x2e bin/obj/rslib.a(core-dca77d77b03929cc.core.bbd04c23a4fa3c72-cgu.0.rcgu.o)
 *fill*         0xffff800040254956        0x2 
 .rodata..Lanon.f5c1b2728a3d49275cd6fdb50aaed8e0.247
                0xffff800040254958       0x10 bin/obj/rslib.a(core-dca77d77b03929cc.core.bbd04c23a4fa3c72-cgu.0.rcgu.o)
 .rodata..Lanon.f5c1b2728a3d49275cd6fdb50aaed8e0.249
                0xffff800040254968       0x18 bin/obj/rslib.a(core-dca77d77b03929cc.core.bbd04c23a4fa3c72-cgu.0.rcgu.o)
 .rodata..Lanon.f5c1b2728a3d49275cd6fdb50aaed8e0.250
                0xffff800040254980       0x12 bin/obj/rslib.a(core-dca77d77b03929cc.core.bbd04c23a4fa3c72-cgu.0.rcgu.o)
 .rodata..Lanon.f5c1b2728a3d49275cd6fdb50aaed8e0.251
                0xffff800040254992       0x13 bin/obj/rslib.a(core-dca77d77b03929cc.core.bbd04c23a4fa3c72-cgu.0.rcgu.o)
 .rodata..Lanon.f5c1b2728a3d49275cd6fdb50aaed8e0.252
                0xffff8000402549a5       0x15 bin/obj/rslib.a(core-dca77d77b03929cc.core.bbd04c23a4fa3c72-cgu.0.rcgu.o)
 *fill*         0xffff8000402549ba        0x6 
 .rodata..Lanon.f5c1b2728a3d49275cd6fdb50aaed8e0.253
                0xffff8000402549c0       0x30 bin/obj/rslib.a(core-dca77d77b03929cc.core.bbd04c23a4fa3c72-cgu.0.rcgu.o)
 .rodata..Lanon.f5c1b2728a3d49275cd6fdb50aaed8e0.254
                0xffff8000402549f0       0x90 bin/obj/rslib.a(core-dca77d77b03929cc.core.bbd04c23a4fa3c72-cgu.0.rcgu.o)
 .rodata..Lanon.f5c1b2728a3d49275cd6fdb50aaed8e0.255
                0xffff800040254a80       0x13 bin/obj/rslib.a(core-dca77d77b03929cc.core.bbd04c23a4fa3c72-cgu.0.rcgu.o)
 *fill*         0xffff800040254a93        0x5 
 .rodata..Lanon.f5c1b2728a3d49275cd6fdb50aaed8e0.256
                0xffff800040254a98       0x30 bin/obj/rslib.a(core-dca77d77b03929cc.core.bbd04c23a4fa3c72-cgu.0.rcgu.o)
 .rodata..Lanon.f5c1b2728a3d49275cd6fdb50aaed8e0.257
                0xffff800040254ac8       0x47 bin/obj/rslib.a(core-dca77d77b03929cc.core.bbd04c23a4fa3c72-cgu.0.rcgu.o)
 *fill*         0xffff800040254b0f        0x1 
 .rodata..Lanon.f5c1b2728a3d49275cd6fdb50aaed8e0.258
                0xffff800040254b10       0x10 bin/obj/rslib.a(core-dca77d77b03929cc.core.bbd04c23a4fa3c72-cgu.0.rcgu.o)
 .rodata..Lanon.f5c1b2728a3d49275cd6fdb50aaed8e0.259
                0xffff800040254b20       0x18 bin/obj/rslib.a(core-dca77d77b03929cc.core.bbd04c23a4fa3c72-cgu.0.rcgu.o)
 .rodata..Lanon.f5c1b2728a3d49275cd6fdb50aaed8e0.260
                0xffff800040254b38       0x1e bin/obj/rslib.a(core-dca77d77b03929cc.core.bbd04c23a4fa3c72-cgu.0.rcgu.o)
 *fill*         0xffff800040254b56        0x2 
 .rodata..Lanon.f5c1b2728a3d49275cd6fdb50aaed8e0.262
                0xffff800040254b58       0x18 bin/obj/rslib.a(core-dca77d77b03929cc.core.bbd04c23a4fa3c72-cgu.0.rcgu.o)
 .rodata..Lanon.f5c1b2728a3d49275cd6fdb50aaed8e0.263
                0xffff800040254b70        0x6 bin/obj/rslib.a(core-dca77d77b03929cc.core.bbd04c23a4fa3c72-cgu.0.rcgu.o)
 .rodata..Lanon.f5c1b2728a3d49275cd6fdb50aaed8e0.265
                0xffff800040254b76        0x5 bin/obj/rslib.a(core-dca77d77b03929cc.core.bbd04c23a4fa3c72-cgu.0.rcgu.o)
 .rodata..Lanon.f5c1b2728a3d49275cd6fdb50aaed8e0.266
                0xffff800040254b7b       0x22 bin/obj/rslib.a(core-dca77d77b03929cc.core.bbd04c23a4fa3c72-cgu.0.rcgu.o)
 *fill*         0xffff800040254b9d        0x3 
 .rodata..Lanon.f5c1b2728a3d49275cd6fdb50aaed8e0.267
                0xffff800040254ba0       0x40 bin/obj/rslib.a(core-dca77d77b03929cc.core.bbd04c23a4fa3c72-cgu.0.rcgu.o)
 .rodata..Lanon.f5c1b2728a3d49275cd6fdb50aaed8e0.268
                0xffff800040254be0       0x18 bin/obj/rslib.a(core-dca77d77b03929cc.core.bbd04c23a4fa3c72-cgu.0.rcgu.o)
 .rodata..Lanon.f5c1b2728a3d49275cd6fdb50aaed8e0.269
                0xffff800040254bf8       0x18 bin/obj/rslib.a(core-dca77d77b03929cc.core.bbd04c23a4fa3c72-cgu.0.rcgu.o)
 .rodata..Lanon.f5c1b2728a3d49275cd6fdb50aaed8e0.270
                0xffff800040254c10       0x26 bin/obj/rslib.a(core-dca77d77b03929cc.core.bbd04c23a4fa3c72-cgu.0.rcgu.o)
 .rodata..Lanon.f5c1b2728a3d49275cd6fdb50aaed8e0.271
                0xffff800040254c36       0x2b bin/obj/rslib.a(core-dca77d77b03929cc.core.bbd04c23a4fa3c72-cgu.0.rcgu.o)
 *fill*         0xffff800040254c61        0x7 
 .rodata..Lanon.f5c1b2728a3d49275cd6fdb50aaed8e0.272
                0xffff800040254c68       0x30 bin/obj/rslib.a(core-dca77d77b03929cc.core.bbd04c23a4fa3c72-cgu.0.rcgu.o)
 .rodata..Lanon.f5c1b2728a3d49275cd6fdb50aaed8e0.273
                0xffff800040254c98       0x4c bin/obj/rslib.a(core-dca77d77b03929cc.core.bbd04c23a4fa3c72-cgu.0.rcgu.o)
 *fill*         0xffff800040254ce4        0x4 
 .rodata..Lanon.f5c1b2728a3d49275cd6fdb50aaed8e0.274
                0xffff800040254ce8       0x10 bin/obj/rslib.a(core-dca77d77b03929cc.core.bbd04c23a4fa3c72-cgu.0.rcgu.o)
 .rodata..Lanon.f5c1b2728a3d49275cd6fdb50aaed8e0.276
                0xffff800040254cf8       0x18 bin/obj/rslib.a(core-dca77d77b03929cc.core.bbd04c23a4fa3c72-cgu.0.rcgu.o)
 .rodata..Lanon.f5c1b2728a3d49275cd6fdb50aaed8e0.278
                0xffff800040254d10       0x18 bin/obj/rslib.a(core-dca77d77b03929cc.core.bbd04c23a4fa3c72-cgu.0.rcgu.o)
 .rodata..Lanon.f5c1b2728a3d49275cd6fdb50aaed8e0.279
                0xffff800040254d28       0x18 bin/obj/rslib.a(core-dca77d77b03929cc.core.bbd04c23a4fa3c72-cgu.0.rcgu.o)
 .rodata..Lanon.f5c1b2728a3d49275cd6fdb50aaed8e0.280
                0xffff800040254d40       0x18 bin/obj/rslib.a(core-dca77d77b03929cc.core.bbd04c23a4fa3c72-cgu.0.rcgu.o)
 .rodata..Lanon.f5c1b2728a3d49275cd6fdb50aaed8e0.281
                0xffff800040254d58       0x18 bin/obj/rslib.a(core-dca77d77b03929cc.core.bbd04c23a4fa3c72-cgu.0.rcgu.o)
 .rodata..Lanon.f5c1b2728a3d49275cd6fdb50aaed8e0.282
                0xffff800040254d70       0x16 bin/obj/rslib.a(core-dca77d77b03929cc.core.bbd04c23a4fa3c72-cgu.0.rcgu.o)
 .rodata..Lanon.f5c1b2728a3d49275cd6fdb50aaed8e0.283
                0xffff800040254d86        0xd bin/obj/rslib.a(core-dca77d77b03929cc.core.bbd04c23a4fa3c72-cgu.0.rcgu.o)
 *fill*         0xffff800040254d93        0x5 
 .rodata..Lanon.f5c1b2728a3d49275cd6fdb50aaed8e0.284
                0xffff800040254d98       0x20 bin/obj/rslib.a(core-dca77d77b03929cc.core.bbd04c23a4fa3c72-cgu.0.rcgu.o)
 .rodata..Lanon.f5c1b2728a3d49275cd6fdb50aaed8e0.286
                0xffff800040254db8       0x22 bin/obj/rslib.a(core-dca77d77b03929cc.core.bbd04c23a4fa3c72-cgu.0.rcgu.o)
 *fill*         0xffff800040254dda        0x6 
 .rodata..Lanon.f5c1b2728a3d49275cd6fdb50aaed8e0.287
                0xffff800040254de0       0x20 bin/obj/rslib.a(core-dca77d77b03929cc.core.bbd04c23a4fa3c72-cgu.0.rcgu.o)
 .rodata..Lanon.f5c1b2728a3d49275cd6fdb50aaed8e0.288
                0xffff800040254e00       0x12 bin/obj/rslib.a(core-dca77d77b03929cc.core.bbd04c23a4fa3c72-cgu.0.rcgu.o)
 *fill*         0xffff800040254e12        0x6 
 .rodata..Lanon.f5c1b2728a3d49275cd6fdb50aaed8e0.289
                0xffff800040254e18       0x20 bin/obj/rslib.a(core-dca77d77b03929cc.core.bbd04c23a4fa3c72-cgu.0.rcgu.o)
 .rodata..Lanon.f5c1b2728a3d49275cd6fdb50aaed8e0.291
                0xffff800040254e38       0x18 bin/obj/rslib.a(core-dca77d77b03929cc.core.bbd04c23a4fa3c72-cgu.0.rcgu.o)
 .rodata..Lanon.f5c1b2728a3d49275cd6fdb50aaed8e0.292
                0xffff800040254e50       0x18 bin/obj/rslib.a(core-dca77d77b03929cc.core.bbd04c23a4fa3c72-cgu.0.rcgu.o)
 .rodata..Lanon.f5c1b2728a3d49275cd6fdb50aaed8e0.293
                0xffff800040254e68      0x100 bin/obj/rslib.a(core-dca77d77b03929cc.core.bbd04c23a4fa3c72-cgu.0.rcgu.o)
 .rodata..Lanon.f5c1b2728a3d49275cd6fdb50aaed8e0.294
                0xffff800040254f68       0x2b bin/obj/rslib.a(core-dca77d77b03929cc.core.bbd04c23a4fa3c72-cgu.0.rcgu.o)
 *fill*         0xffff800040254f93        0x5 
 .rodata..Lanon.f5c1b2728a3d49275cd6fdb50aaed8e0.295
                0xffff800040254f98       0x20 bin/obj/rslib.a(core-dca77d77b03929cc.core.bbd04c23a4fa3c72-cgu.0.rcgu.o)
 .rodata._ZN4core7unicode12unicode_data10alphabetic17SHORT_OFFSET_RUNS17h7b947fc57ed29be8E
                0xffff800040254fb8       0xcc bin/obj/rslib.a(core-dca77d77b03929cc.core.bbd04c23a4fa3c72-cgu.0.rcgu.o)
 .rodata..Lanon.f5c1b2728a3d49275cd6fdb50aaed8e0.296
                0xffff800040255084     0x2db0 bin/obj/rslib.a(core-dca77d77b03929cc.core.bbd04c23a4fa3c72-cgu.0.rcgu.o)
 .rodata..Lanon.f5c1b2728a3d49275cd6fdb50aaed8e0.297
                0xffff800040257e34     0x3090 bin/obj/rslib.a(core-dca77d77b03929cc.core.bbd04c23a4fa3c72-cgu.0.rcgu.o)
 .rodata..Lanon.f5c1b2728a3d49275cd6fdb50aaed8e0.298
                0xffff80004025aec4      0x4c8 bin/obj/rslib.a(core-dca77d77b03929cc.core.bbd04c23a4fa3c72-cgu.0.rcgu.o)
 *fill*         0xffff80004025b38c        0x4 
 .rodata..Lanon.f5c1b2728a3d49275cd6fdb50aaed8e0.300
                0xffff80004025b390       0x18 bin/obj/rslib.a(core-dca77d77b03929cc.core.bbd04c23a4fa3c72-cgu.0.rcgu.o)
 .rodata..Lanon.f5c1b2728a3d49275cd6fdb50aaed8e0.301
                0xffff80004025b3a8       0x18 bin/obj/rslib.a(core-dca77d77b03929cc.core.bbd04c23a4fa3c72-cgu.0.rcgu.o)
 .rodata..Lanon.f5c1b2728a3d49275cd6fdb50aaed8e0.302
                0xffff80004025b3c0       0x18 bin/obj/rslib.a(core-dca77d77b03929cc.core.bbd04c23a4fa3c72-cgu.0.rcgu.o)
 .rodata..Lanon.f5c1b2728a3d49275cd6fdb50aaed8e0.303
                0xffff80004025b3d8       0x18 bin/obj/rslib.a(core-dca77d77b03929cc.core.bbd04c23a4fa3c72-cgu.0.rcgu.o)
 .rodata..Lanon.f5c1b2728a3d49275cd6fdb50aaed8e0.304
                0xffff80004025b3f0       0x18 bin/obj/rslib.a(core-dca77d77b03929cc.core.bbd04c23a4fa3c72-cgu.0.rcgu.o)
 .rodata._ZN4core7unicode12unicode_data14case_ignorable17SHORT_OFFSET_RUNS17hdb565dff6129ea68E
                0xffff80004025b408       0x90 bin/obj/rslib.a(core-dca77d77b03929cc.core.bbd04c23a4fa3c72-cgu.0.rcgu.o)
 .rodata._ZN4core7unicode12unicode_data15grapheme_extend17SHORT_OFFSET_RUNS17h8c6d6a58bb907fa8E
                0xffff80004025b498       0x84 bin/obj/rslib.a(core-dca77d77b03929cc.core.bbd04c23a4fa3c72-cgu.0.rcgu.o)
 .rodata._ZN4core7unicode12unicode_data1n17SHORT_OFFSET_RUNS17h007abe587b18fe69E
                0xffff80004025b51c       0xac bin/obj/rslib.a(core-dca77d77b03929cc.core.bbd04c23a4fa3c72-cgu.0.rcgu.o)
 .rodata._ZN4core7unicode12unicode_data5cased17SHORT_OFFSET_RUNS17h0443efe81a8c45e7E
                0xffff80004025b5c8       0x58 bin/obj/rslib.a(core-dca77d77b03929cc.core.bbd04c23a4fa3c72-cgu.0.rcgu.o)
 .rodata._ZN4core7unicode12unicode_data9lowercase14BITSET_MAPPING17hcecc91c2a6b1d730E
                0xffff80004025b620       0x2c bin/obj/rslib.a(core-dca77d77b03929cc.core.bbd04c23a4fa3c72-cgu.0.rcgu.o)
                0xffff80004025b620                core::unicode::unicode_data::lowercase::BITSET_MAPPING
 *fill*         0xffff80004025b64c        0x4 
 .rodata._ZN4core7unicode12unicode_data9lowercase16BITSET_CANONICAL17h851c6ec187b7f1c7E
                0xffff80004025b650      0x1c8 bin/obj/rslib.a(core-dca77d77b03929cc.core.bbd04c23a4fa3c72-cgu.0.rcgu.o)
                0xffff80004025b650                core::unicode::unicode_data::lowercase::BITSET_CANONICAL
 .rodata._ZN4core7unicode12unicode_data9lowercase19BITSET_INDEX_CHUNKS17h8b0ee408f7f96120E
                0xffff80004025b818      0x140 bin/obj/rslib.a(core-dca77d77b03929cc.core.bbd04c23a4fa3c72-cgu.0.rcgu.o)
                0xffff80004025b818                core::unicode::unicode_data::lowercase::BITSET_INDEX_CHUNKS
 .rodata._ZN4core7unicode12unicode_data9uppercase14BITSET_MAPPING17h5d42b0715ff8312eE
                0xffff80004025b958       0x32 bin/obj/rslib.a(core-dca77d77b03929cc.core.bbd04c23a4fa3c72-cgu.0.rcgu.o)
                0xffff80004025b958                core::unicode::unicode_data::uppercase::BITSET_MAPPING
 *fill*         0xffff80004025b98a        0x6 
 .rodata._ZN4core7unicode12unicode_data9uppercase16BITSET_CANONICAL17hab53f872ed537646E
                0xffff80004025b990      0x160 bin/obj/rslib.a(core-dca77d77b03929cc.core.bbd04c23a4fa3c72-cgu.0.rcgu.o)
                0xffff80004025b990                core::unicode::unicode_data::uppercase::BITSET_CANONICAL
 .rodata._ZN4core7unicode12unicode_data9uppercase19BITSET_INDEX_CHUNKS17ha1f3b40ace6887c2E
                0xffff80004025baf0      0x110 bin/obj/rslib.a(core-dca77d77b03929cc.core.bbd04c23a4fa3c72-cgu.0.rcgu.o)
                0xffff80004025baf0                core::unicode::unicode_data::uppercase::BITSET_INDEX_CHUNKS
 .rodata..Lanon.f5c1b2728a3d49275cd6fdb50aaed8e0.305
                0xffff80004025bc00       0x5c bin/obj/rslib.a(core-dca77d77b03929cc.core.bbd04c23a4fa3c72-cgu.0.rcgu.o)
 .rodata..Lanon.f5c1b2728a3d49275cd6fdb50aaed8e0.306
                0xffff80004025bc5c       0xd4 bin/obj/rslib.a(core-dca77d77b03929cc.core.bbd04c23a4fa3c72-cgu.0.rcgu.o)
 .rodata..Lanon.f5c1b2728a3d49275cd6fdb50aaed8e0.307
                0xffff80004025bd30      0x1f8 bin/obj/rslib.a(core-dca77d77b03929cc.core.bbd04c23a4fa3c72-cgu.0.rcgu.o)
 .rodata..Lanon.f5c1b2728a3d49275cd6fdb50aaed8e0.308
                0xffff80004025bf28       0x4c bin/obj/rslib.a(core-dca77d77b03929cc.core.bbd04c23a4fa3c72-cgu.0.rcgu.o)
 .rodata..Lanon.f5c1b2728a3d49275cd6fdb50aaed8e0.309
                0xffff80004025bf74      0x11c bin/obj/rslib.a(core-dca77d77b03929cc.core.bbd04c23a4fa3c72-cgu.0.rcgu.o)
 .rodata..Lanon.f5c1b2728a3d49275cd6fdb50aaed8e0.310
                0xffff80004025c090      0x124 bin/obj/rslib.a(core-dca77d77b03929cc.core.bbd04c23a4fa3c72-cgu.0.rcgu.o)
 *fill*         0xffff80004025c1b4        0x4 
 .rodata..Lanon.f5c1b2728a3d49275cd6fdb50aaed8e0.312
                0xffff80004025c1b8       0x18 bin/obj/rslib.a(core-dca77d77b03929cc.core.bbd04c23a4fa3c72-cgu.0.rcgu.o)
 .rodata..Lanon.f5c1b2728a3d49275cd6fdb50aaed8e0.313
                0xffff80004025c1d0       0x18 bin/obj/rslib.a(core-dca77d77b03929cc.core.bbd04c23a4fa3c72-cgu.0.rcgu.o)
 .rodata..Lanon.f5c1b2728a3d49275cd6fdb50aaed8e0.314
                0xffff80004025c1e8       0x19 bin/obj/rslib.a(core-dca77d77b03929cc.core.bbd04c23a4fa3c72-cgu.0.rcgu.o)
 *fill*         0xffff80004025c201        0x7 
 .rodata..Lanon.f5c1b2728a3d49275cd6fdb50aaed8e0.315
                0xffff80004025c208       0x10 bin/obj/rslib.a(core-dca77d77b03929cc.core.bbd04c23a4fa3c72-cgu.0.rcgu.o)
 .rodata..Lanon.f5c1b2728a3d49275cd6fdb50aaed8e0.316
                0xffff80004025c218       0x3b bin/obj/rslib.a(core-dca77d77b03929cc.core.bbd04c23a4fa3c72-cgu.0.rcgu.o)
 *fill*         0xffff80004025c253        0x5 
 .rodata..Lanon.f5c1b2728a3d49275cd6fdb50aaed8e0.317
                0xffff80004025c258       0x10 bin/obj/rslib.a(core-dca77d77b03929cc.core.bbd04c23a4fa3c72-cgu.0.rcgu.o)
 .rodata..Lanon.f5c1b2728a3d49275cd6fdb50aaed8e0.318
                0xffff80004025c268       0x39 bin/obj/rslib.a(core-dca77d77b03929cc.core.bbd04c23a4fa3c72-cgu.0.rcgu.o)
 *fill*         0xffff80004025c2a1        0x7 
 .rodata..Lanon.f5c1b2728a3d49275cd6fdb50aaed8e0.319
                0xffff80004025c2a8       0x10 bin/obj/rslib.a(core-dca77d77b03929cc.core.bbd04c23a4fa3c72-cgu.0.rcgu.o)
 .rodata..Lanon.f5c1b2728a3d49275cd6fdb50aaed8e0.320
                0xffff80004025c2b8       0x23 bin/obj/rslib.a(core-dca77d77b03929cc.core.bbd04c23a4fa3c72-cgu.0.rcgu.o)
 *fill*         0xffff80004025c2db        0x5 
 .rodata..Lanon.f5c1b2728a3d49275cd6fdb50aaed8e0.321
                0xffff80004025c2e0       0x10 bin/obj/rslib.a(core-dca77d77b03929cc.core.bbd04c23a4fa3c72-cgu.0.rcgu.o)
 .rodata..Lanon.f5c1b2728a3d49275cd6fdb50aaed8e0.322
                0xffff80004025c2f0       0x21 bin/obj/rslib.a(core-dca77d77b03929cc.core.bbd04c23a4fa3c72-cgu.0.rcgu.o)
 *fill*         0xffff80004025c311        0x7 
 .rodata..Lanon.f5c1b2728a3d49275cd6fdb50aaed8e0.323
                0xffff80004025c318       0x10 bin/obj/rslib.a(core-dca77d77b03929cc.core.bbd04c23a4fa3c72-cgu.0.rcgu.o)
 .rodata..Lanon.f5c1b2728a3d49275cd6fdb50aaed8e0.324
                0xffff80004025c328       0x22 bin/obj/rslib.a(core-dca77d77b03929cc.core.bbd04c23a4fa3c72-cgu.0.rcgu.o)
 *fill*         0xffff80004025c34a        0x6 
 .rodata..Lanon.f5c1b2728a3d49275cd6fdb50aaed8e0.325
                0xffff80004025c350       0x10 bin/obj/rslib.a(core-dca77d77b03929cc.core.bbd04c23a4fa3c72-cgu.0.rcgu.o)
 .rodata..Lanon.f5c1b2728a3d49275cd6fdb50aaed8e0.326
                0xffff80004025c360       0x3a bin/obj/rslib.a(core-dca77d77b03929cc.core.bbd04c23a4fa3c72-cgu.0.rcgu.o)
 *fill*         0xffff80004025c39a        0x6 
 .rodata..Lanon.f5c1b2728a3d49275cd6fdb50aaed8e0.327
                0xffff80004025c3a0       0x10 bin/obj/rslib.a(core-dca77d77b03929cc.core.bbd04c23a4fa3c72-cgu.0.rcgu.o)
 .rodata..Lanon.f5c1b2728a3d49275cd6fdb50aaed8e0.328
                0xffff80004025c3b0       0x27 bin/obj/rslib.a(core-dca77d77b03929cc.core.bbd04c23a4fa3c72-cgu.0.rcgu.o)
 *fill*         0xffff80004025c3d7        0x1 
 .rodata..Lanon.f5c1b2728a3d49275cd6fdb50aaed8e0.329
                0xffff80004025c3d8       0x10 bin/obj/rslib.a(core-dca77d77b03929cc.core.bbd04c23a4fa3c72-cgu.0.rcgu.o)
 .rodata..Lanon.f5c1b2728a3d49275cd6fdb50aaed8e0.330
                0xffff80004025c3e8       0x23 bin/obj/rslib.a(core-dca77d77b03929cc.core.bbd04c23a4fa3c72-cgu.0.rcgu.o)
 *fill*         0xffff80004025c40b        0x5 
 .rodata..Lanon.f5c1b2728a3d49275cd6fdb50aaed8e0.331
                0xffff80004025c410       0x10 bin/obj/rslib.a(core-dca77d77b03929cc.core.bbd04c23a4fa3c72-cgu.0.rcgu.o)
 .rodata..Lanon.f5c1b2728a3d49275cd6fdb50aaed8e0.332
                0xffff80004025c420       0x22 bin/obj/rslib.a(core-dca77d77b03929cc.core.bbd04c23a4fa3c72-cgu.0.rcgu.o)
 *fill*         0xffff80004025c442        0x6 
 .rodata..Lanon.f5c1b2728a3d49275cd6fdb50aaed8e0.333
                0xffff80004025c448       0x10 bin/obj/rslib.a(core-dca77d77b03929cc.core.bbd04c23a4fa3c72-cgu.0.rcgu.o)
 .rodata..Lanon.f5c1b2728a3d49275cd6fdb50aaed8e0.334
                0xffff80004025c458       0x22 bin/obj/rslib.a(core-dca77d77b03929cc.core.bbd04c23a4fa3c72-cgu.0.rcgu.o)
 *fill*         0xffff80004025c47a        0x6 
 .rodata..Lanon.f5c1b2728a3d49275cd6fdb50aaed8e0.335
                0xffff80004025c480       0x10 bin/obj/rslib.a(core-dca77d77b03929cc.core.bbd04c23a4fa3c72-cgu.0.rcgu.o)
 .rodata..Lanon.f5c1b2728a3d49275cd6fdb50aaed8e0.336
                0xffff80004025c490       0x21 bin/obj/rslib.a(core-dca77d77b03929cc.core.bbd04c23a4fa3c72-cgu.0.rcgu.o)
 *fill*         0xffff80004025c4b1        0x7 
 .rodata..Lanon.f5c1b2728a3d49275cd6fdb50aaed8e0.337
                0xffff80004025c4b8       0x10 bin/obj/rslib.a(core-dca77d77b03929cc.core.bbd04c23a4fa3c72-cgu.0.rcgu.o)
 .rodata..Lanon.f5c1b2728a3d49275cd6fdb50aaed8e0.338
                0xffff80004025c4c8       0x27 bin/obj/rslib.a(core-dca77d77b03929cc.core.bbd04c23a4fa3c72-cgu.0.rcgu.o)
 *fill*         0xffff80004025c4ef        0x1 
 .rodata..Lanon.f5c1b2728a3d49275cd6fdb50aaed8e0.339
                0xffff80004025c4f0       0x10 bin/obj/rslib.a(core-dca77d77b03929cc.core.bbd04c23a4fa3c72-cgu.0.rcgu.o)
 .rodata..Lanon.f5c1b2728a3d49275cd6fdb50aaed8e0.340
                0xffff80004025c500       0x26 bin/obj/rslib.a(core-dca77d77b03929cc.core.bbd04c23a4fa3c72-cgu.0.rcgu.o)
 *fill*         0xffff80004025c526        0x2 
 .rodata..Lanon.f5c1b2728a3d49275cd6fdb50aaed8e0.341
                0xffff80004025c528       0x10 bin/obj/rslib.a(core-dca77d77b03929cc.core.bbd04c23a4fa3c72-cgu.0.rcgu.o)
 .rodata..Lanon.f5c1b2728a3d49275cd6fdb50aaed8e0.342
                0xffff80004025c538       0x20 bin/obj/rslib.a(core-dca77d77b03929cc.core.bbd04c23a4fa3c72-cgu.0.rcgu.o)
 .rodata..Lanon.f5c1b2728a3d49275cd6fdb50aaed8e0.343
                0xffff80004025c558       0x20 bin/obj/rslib.a(core-dca77d77b03929cc.core.bbd04c23a4fa3c72-cgu.0.rcgu.o)
 .rodata..Lanon.f5c1b2728a3d49275cd6fdb50aaed8e0.344
                0xffff80004025c578       0x20 bin/obj/rslib.a(core-dca77d77b03929cc.core.bbd04c23a4fa3c72-cgu.0.rcgu.o)
 .rodata..Lanon.f5c1b2728a3d49275cd6fdb50aaed8e0.346
                0xffff80004025c598       0x18 bin/obj/rslib.a(core-dca77d77b03929cc.core.bbd04c23a4fa3c72-cgu.0.rcgu.o)
 .rodata..Lanon.f5c1b2728a3d49275cd6fdb50aaed8e0.347
                0xffff80004025c5b0       0x18 bin/obj/rslib.a(core-dca77d77b03929cc.core.bbd04c23a4fa3c72-cgu.0.rcgu.o)
 .rodata..Lanon.f5c1b2728a3d49275cd6fdb50aaed8e0.348
                0xffff80004025c5c8       0x24 bin/obj/rslib.a(core-dca77d77b03929cc.core.bbd04c23a4fa3c72-cgu.0.rcgu.o)
 *fill*         0xffff80004025c5ec        0x4 
 .rodata.cst32  0xffff80004025c5f0       0x80 bin/obj/rslib.a(core-dca77d77b03929cc.core.bbd04c23a4fa3c72-cgu.0.rcgu.o)
 .rodata..Lanon.f5c1b2728a3d49275cd6fdb50aaed8e0.350
                0xffff80004025c670       0x12 bin/obj/rslib.a(core-dca77d77b03929cc.core.bbd04c23a4fa3c72-cgu.0.rcgu.o)
 *fill*         0xffff80004025c682        0x6 
 .rodata..Lanon.f5c1b2728a3d49275cd6fdb50aaed8e0.351
                0xffff80004025c688       0x20 bin/obj/rslib.a(core-dca77d77b03929cc.core.bbd04c23a4fa3c72-cgu.0.rcgu.o)
 .rodata..Lanon.f5c1b2728a3d49275cd6fdb50aaed8e0.352
                0xffff80004025c6a8        0x2 bin/obj/rslib.a(core-dca77d77b03929cc.core.bbd04c23a4fa3c72-cgu.0.rcgu.o)
 .rodata..Lanon.f5c1b2728a3d49275cd6fdb50aaed8e0.353
                0xffff80004025c6aa        0x2 bin/obj/rslib.a(core-dca77d77b03929cc.core.bbd04c23a4fa3c72-cgu.0.rcgu.o)
 .rodata..Lanon.f5c1b2728a3d49275cd6fdb50aaed8e0.354
                0xffff80004025c6ac        0x7 bin/obj/rslib.a(core-dca77d77b03929cc.core.bbd04c23a4fa3c72-cgu.0.rcgu.o)
 .rodata..Lanon.f5c1b2728a3d49275cd6fdb50aaed8e0.356
                0xffff80004025c6b3       0x17 bin/obj/rslib.a(core-dca77d77b03929cc.core.bbd04c23a4fa3c72-cgu.0.rcgu.o)
 .rodata..Lanon.f5c1b2728a3d49275cd6fdb50aaed8e0.357
                0xffff80004025c6ca        0x9 bin/obj/rslib.a(core-dca77d77b03929cc.core.bbd04c23a4fa3c72-cgu.0.rcgu.o)
 *fill*         0xffff80004025c6d3        0x5 
 .rodata..Lanon.f5c1b2728a3d49275cd6fdb50aaed8e0.358
                0xffff80004025c6d8       0x30 bin/obj/rslib.a(core-dca77d77b03929cc.core.bbd04c23a4fa3c72-cgu.0.rcgu.o)
 .rodata..Lanon.f5c1b2728a3d49275cd6fdb50aaed8e0.360
                0xffff80004025c708        0x9 bin/obj/rslib.a(core-dca77d77b03929cc.core.bbd04c23a4fa3c72-cgu.0.rcgu.o)
 *fill*         0xffff80004025c711        0x7 
 .rodata..Lanon.f5c1b2728a3d49275cd6fdb50aaed8e0.361
                0xffff80004025c718       0x40 bin/obj/rslib.a(core-dca77d77b03929cc.core.bbd04c23a4fa3c72-cgu.0.rcgu.o)
 .rodata..Lanon.f5c1b2728a3d49275cd6fdb50aaed8e0.362
                0xffff80004025c758       0x26 bin/obj/rslib.a(core-dca77d77b03929cc.core.bbd04c23a4fa3c72-cgu.0.rcgu.o)
 *fill*         0xffff80004025c77e        0x2 
 .rodata..Lanon.f5c1b2728a3d49275cd6fdb50aaed8e0.363
                0xffff80004025c780       0x18 bin/obj/rslib.a(core-dca77d77b03929cc.core.bbd04c23a4fa3c72-cgu.0.rcgu.o)
 .rodata..Lanon.f5c1b2728a3d49275cd6fdb50aaed8e0.364
                0xffff80004025c798       0x21 bin/obj/rslib.a(core-dca77d77b03929cc.core.bbd04c23a4fa3c72-cgu.0.rcgu.o)
 *fill*         0xffff80004025c7b9        0x7 
 .rodata..Lanon.f5c1b2728a3d49275cd6fdb50aaed8e0.365
                0xffff80004025c7c0       0x10 bin/obj/rslib.a(core-dca77d77b03929cc.core.bbd04c23a4fa3c72-cgu.0.rcgu.o)
 .rodata..Lanon.f5c1b2728a3d49275cd6fdb50aaed8e0.366
                0xffff80004025c7d0       0x32 bin/obj/rslib.a(core-dca77d77b03929cc.core.bbd04c23a4fa3c72-cgu.0.rcgu.o)
 *fill*         0xffff80004025c802        0x6 
 .rodata..Lanon.f5c1b2728a3d49275cd6fdb50aaed8e0.367
                0xffff80004025c808       0x10 bin/obj/rslib.a(core-dca77d77b03929cc.core.bbd04c23a4fa3c72-cgu.0.rcgu.o)
 .rodata..Lanon.f5c1b2728a3d49275cd6fdb50aaed8e0.368
                0xffff80004025c818       0x30 bin/obj/rslib.a(core-dca77d77b03929cc.core.bbd04c23a4fa3c72-cgu.0.rcgu.o)
 .rodata..Lanon.f5c1b2728a3d49275cd6fdb50aaed8e0.369
                0xffff80004025c848       0x3e bin/obj/rslib.a(core-dca77d77b03929cc.core.bbd04c23a4fa3c72-cgu.0.rcgu.o)
 *fill*         0xffff80004025c886        0x2 
 .rodata..Lanon.f5c1b2728a3d49275cd6fdb50aaed8e0.371
                0xffff80004025c888       0x20 bin/obj/rslib.a(core-dca77d77b03929cc.core.bbd04c23a4fa3c72-cgu.0.rcgu.o)
 .rodata..Lanon.f5c1b2728a3d49275cd6fdb50aaed8e0.372
                0xffff80004025c8a8       0x60 bin/obj/rslib.a(core-dca77d77b03929cc.core.bbd04c23a4fa3c72-cgu.0.rcgu.o)
 .rodata..Lanon.f5c1b2728a3d49275cd6fdb50aaed8e0.373
                0xffff80004025c908        0x5 bin/obj/rslib.a(core-dca77d77b03929cc.core.bbd04c23a4fa3c72-cgu.0.rcgu.o)
 .rodata..Lanon.f5c1b2728a3d49275cd6fdb50aaed8e0.374
                0xffff80004025c90d        0x1 bin/obj/rslib.a(core-dca77d77b03929cc.core.bbd04c23a4fa3c72-cgu.0.rcgu.o)
 .rodata..Lanon.f5c1b2728a3d49275cd6fdb50aaed8e0.375
                0xffff80004025c90e        0x3 bin/obj/rslib.a(core-dca77d77b03929cc.core.bbd04c23a4fa3c72-cgu.0.rcgu.o)
 *fill*         0xffff80004025c911        0x7 
 .rodata..Lanon.f5c1b2728a3d49275cd6fdb50aaed8e0.376
                0xffff80004025c918       0x20 bin/obj/rslib.a(core-dca77d77b03929cc.core.bbd04c23a4fa3c72-cgu.0.rcgu.o)
 .rodata..Lanon.f5c1b2728a3d49275cd6fdb50aaed8e0.377
                0xffff80004025c938       0x18 bin/obj/rslib.a(core-dca77d77b03929cc.core.bbd04c23a4fa3c72-cgu.0.rcgu.o)
 .rodata..Lanon.f5c1b2728a3d49275cd6fdb50aaed8e0.378
                0xffff80004025c950        0x7 bin/obj/rslib.a(core-dca77d77b03929cc.core.bbd04c23a4fa3c72-cgu.0.rcgu.o)
 *fill*         0xffff80004025c957        0x1 
 .rodata..Lanon.f5c1b2728a3d49275cd6fdb50aaed8e0.379
                0xffff80004025c958       0x20 bin/obj/rslib.a(core-dca77d77b03929cc.core.bbd04c23a4fa3c72-cgu.0.rcgu.o)
 .rodata..Lanon.f5c1b2728a3d49275cd6fdb50aaed8e0.380
                0xffff80004025c978       0x30 bin/obj/rslib.a(core-dca77d77b03929cc.core.bbd04c23a4fa3c72-cgu.0.rcgu.o)
 .rodata..Lanon.f5c1b2728a3d49275cd6fdb50aaed8e0.381
                0xffff80004025c9a8        0x6 bin/obj/rslib.a(core-dca77d77b03929cc.core.bbd04c23a4fa3c72-cgu.0.rcgu.o)
 .rodata..Lanon.f5c1b2728a3d49275cd6fdb50aaed8e0.382
                0xffff80004025c9ae       0x2d bin/obj/rslib.a(core-dca77d77b03929cc.core.bbd04c23a4fa3c72-cgu.0.rcgu.o)
 *fill*         0xffff80004025c9db        0x5 
 .rodata..Lanon.f5c1b2728a3d49275cd6fdb50aaed8e0.383
                0xffff80004025c9e0       0x18 bin/obj/rslib.a(core-dca77d77b03929cc.core.bbd04c23a4fa3c72-cgu.0.rcgu.o)
 .rodata..Lanon.f5c1b2728a3d49275cd6fdb50aaed8e0.384
                0xffff80004025c9f8        0x2 bin/obj/rslib.a(core-dca77d77b03929cc.core.bbd04c23a4fa3c72-cgu.0.rcgu.o)
 .rodata..Lanon.f5c1b2728a3d49275cd6fdb50aaed8e0.385
                0xffff80004025c9fa        0x7 bin/obj/rslib.a(core-dca77d77b03929cc.core.bbd04c23a4fa3c72-cgu.0.rcgu.o)
 *fill*         0xffff80004025ca01        0x7 
 .rodata..Lanon.f5c1b2728a3d49275cd6fdb50aaed8e0.387
                0xffff80004025ca08       0x18 bin/obj/rslib.a(core-dca77d77b03929cc.core.bbd04c23a4fa3c72-cgu.0.rcgu.o)
 .rodata..Lanon.f5c1b2728a3d49275cd6fdb50aaed8e0.389
                0xffff80004025ca20       0x14 bin/obj/rslib.a(core-dca77d77b03929cc.core.bbd04c23a4fa3c72-cgu.0.rcgu.o)
 *fill*         0xffff80004025ca34        0x4 
 .rodata..Lanon.f5c1b2728a3d49275cd6fdb50aaed8e0.390
                0xffff80004025ca38       0x20 bin/obj/rslib.a(core-dca77d77b03929cc.core.bbd04c23a4fa3c72-cgu.0.rcgu.o)
 .rodata..Lanon.f5c1b2728a3d49275cd6fdb50aaed8e0.391
                0xffff80004025ca58       0x10 bin/obj/rslib.a(core-dca77d77b03929cc.core.bbd04c23a4fa3c72-cgu.0.rcgu.o)
 .rodata..Lanon.f5c1b2728a3d49275cd6fdb50aaed8e0.392
                0xffff80004025ca68       0x30 bin/obj/rslib.a(core-dca77d77b03929cc.core.bbd04c23a4fa3c72-cgu.0.rcgu.o)
 .rodata..Lanon.f5c1b2728a3d49275cd6fdb50aaed8e0.394
                0xffff80004025ca98       0x10 bin/obj/rslib.a(core-dca77d77b03929cc.core.bbd04c23a4fa3c72-cgu.0.rcgu.o)
 .rodata..Lanon.f5c1b2728a3d49275cd6fdb50aaed8e0.395
                0xffff80004025caa8       0x18 bin/obj/rslib.a(core-dca77d77b03929cc.core.bbd04c23a4fa3c72-cgu.0.rcgu.o)
 .rodata..Lanon.f5c1b2728a3d49275cd6fdb50aaed8e0.396
                0xffff80004025cac0       0x18 bin/obj/rslib.a(core-dca77d77b03929cc.core.bbd04c23a4fa3c72-cgu.0.rcgu.o)
 .rodata..Lanon.f5c1b2728a3d49275cd6fdb50aaed8e0.397
                0xffff80004025cad8        0x2 bin/obj/rslib.a(core-dca77d77b03929cc.core.bbd04c23a4fa3c72-cgu.0.rcgu.o)
 .rodata..Lanon.f5c1b2728a3d49275cd6fdb50aaed8e0.398
                0xffff80004025cada        0x3 bin/obj/rslib.a(core-dca77d77b03929cc.core.bbd04c23a4fa3c72-cgu.0.rcgu.o)
 .rodata..Lanon.f5c1b2728a3d49275cd6fdb50aaed8e0.399
                0xffff80004025cadd        0x2 bin/obj/rslib.a(core-dca77d77b03929cc.core.bbd04c23a4fa3c72-cgu.0.rcgu.o)
 .rodata..Lanon.f5c1b2728a3d49275cd6fdb50aaed8e0.400
                0xffff80004025cadf        0x1 bin/obj/rslib.a(core-dca77d77b03929cc.core.bbd04c23a4fa3c72-cgu.0.rcgu.o)
 .rodata..Lanon.f5c1b2728a3d49275cd6fdb50aaed8e0.401
                0xffff80004025cae0        0x3 bin/obj/rslib.a(core-dca77d77b03929cc.core.bbd04c23a4fa3c72-cgu.0.rcgu.o)
 .rodata..Lanon.f5c1b2728a3d49275cd6fdb50aaed8e0.402
                0xffff80004025cae3        0x6 bin/obj/rslib.a(core-dca77d77b03929cc.core.bbd04c23a4fa3c72-cgu.0.rcgu.o)
 .rodata..Lanon.f5c1b2728a3d49275cd6fdb50aaed8e0.403
                0xffff80004025cae9        0xb bin/obj/rslib.a(core-dca77d77b03929cc.core.bbd04c23a4fa3c72-cgu.0.rcgu.o)
 .rodata..Lanon.f5c1b2728a3d49275cd6fdb50aaed8e0.405
                0xffff80004025caf4       0x40 bin/obj/rslib.a(core-dca77d77b03929cc.core.bbd04c23a4fa3c72-cgu.0.rcgu.o)
 *fill*         0xffff80004025cb34        0x4 
 .rodata..Lanon.f5c1b2728a3d49275cd6fdb50aaed8e0.406
                0xffff80004025cb38      0x100 bin/obj/rslib.a(core-dca77d77b03929cc.core.bbd04c23a4fa3c72-cgu.0.rcgu.o)
 .rodata..Lanon.f5c1b2728a3d49275cd6fdb50aaed8e0.408
                0xffff80004025cc38       0x18 bin/obj/rslib.a(core-dca77d77b03929cc.core.bbd04c23a4fa3c72-cgu.0.rcgu.o)
 .rodata..Lanon.f5c1b2728a3d49275cd6fdb50aaed8e0.409
                0xffff80004025cc50        0x2 bin/obj/rslib.a(core-dca77d77b03929cc.core.bbd04c23a4fa3c72-cgu.0.rcgu.o)
 *fill*         0xffff80004025cc52        0x6 
 .rodata..Lanon.f5c1b2728a3d49275cd6fdb50aaed8e0.410
                0xffff80004025cc58       0x10 bin/obj/rslib.a(core-dca77d77b03929cc.core.bbd04c23a4fa3c72-cgu.0.rcgu.o)
 .rodata..Lanon.f5c1b2728a3d49275cd6fdb50aaed8e0.411
                0xffff80004025cc68       0x30 bin/obj/rslib.a(core-dca77d77b03929cc.core.bbd04c23a4fa3c72-cgu.0.rcgu.o)
 .rodata..Lanon.f5c1b2728a3d49275cd6fdb50aaed8e0.412
                0xffff80004025cc98       0x18 bin/obj/rslib.a(core-dca77d77b03929cc.core.bbd04c23a4fa3c72-cgu.0.rcgu.o)
 .rodata..Lanon.f5c1b2728a3d49275cd6fdb50aaed8e0.413
                0xffff80004025ccb0        0x5 bin/obj/rslib.a(core-dca77d77b03929cc.core.bbd04c23a4fa3c72-cgu.0.rcgu.o)
 *fill*         0xffff80004025ccb5        0x3 
 .rodata..Lanon.f5c1b2728a3d49275cd6fdb50aaed8e0.414
                0xffff80004025ccb8       0x20 bin/obj/rslib.a(core-dca77d77b03929cc.core.bbd04c23a4fa3c72-cgu.0.rcgu.o)
 .rodata..Lanon.f5c1b2728a3d49275cd6fdb50aaed8e0.416
                0xffff80004025ccd8       0x20 bin/obj/rslib.a(core-dca77d77b03929cc.core.bbd04c23a4fa3c72-cgu.0.rcgu.o)
 .rodata..Lanon.f5c1b2728a3d49275cd6fdb50aaed8e0.417
                0xffff80004025ccf8        0x6 bin/obj/rslib.a(core-dca77d77b03929cc.core.bbd04c23a4fa3c72-cgu.0.rcgu.o)
 .rodata..Lanon.f5c1b2728a3d49275cd6fdb50aaed8e0.418
                0xffff80004025ccfe       0x18 bin/obj/rslib.a(core-dca77d77b03929cc.core.bbd04c23a4fa3c72-cgu.0.rcgu.o)
 .rodata..Lanon.f5c1b2728a3d49275cd6fdb50aaed8e0.420
                0xffff80004025cd16        0x7 bin/obj/rslib.a(core-dca77d77b03929cc.core.bbd04c23a4fa3c72-cgu.0.rcgu.o)
 *fill*         0xffff80004025cd1d        0x3 
 .rodata..Lanon.f5c1b2728a3d49275cd6fdb50aaed8e0.421
                0xffff80004025cd20       0x20 bin/obj/rslib.a(core-dca77d77b03929cc.core.bbd04c23a4fa3c72-cgu.0.rcgu.o)
 .rodata..Lanon.f5c1b2728a3d49275cd6fdb50aaed8e0.422
                0xffff80004025cd40        0x5 bin/obj/rslib.a(core-dca77d77b03929cc.core.bbd04c23a4fa3c72-cgu.0.rcgu.o)
 .rodata..Lanon.f5c1b2728a3d49275cd6fdb50aaed8e0.423
                0xffff80004025cd45        0xd bin/obj/rslib.a(core-dca77d77b03929cc.core.bbd04c23a4fa3c72-cgu.0.rcgu.o)
 .rodata..Lanon.f5c1b2728a3d49275cd6fdb50aaed8e0.424
                0xffff80004025cd52        0xe bin/obj/rslib.a(core-dca77d77b03929cc.core.bbd04c23a4fa3c72-cgu.0.rcgu.o)
 .rodata..Lanon.f5c1b2728a3d49275cd6fdb50aaed8e0.425
                0xffff80004025cd60        0x1 bin/obj/rslib.a(core-dca77d77b03929cc.core.bbd04c23a4fa3c72-cgu.0.rcgu.o)
 *fill*         0xffff80004025cd61        0x7 
 .rodata..Lanon.f5c1b2728a3d49275cd6fdb50aaed8e0.426
                0xffff80004025cd68       0x10 bin/obj/rslib.a(core-dca77d77b03929cc.core.bbd04c23a4fa3c72-cgu.0.rcgu.o)
 .rodata..Lanon.f5c1b2728a3d49275cd6fdb50aaed8e0.427
                0xffff80004025cd78       0x30 bin/obj/rslib.a(core-dca77d77b03929cc.core.bbd04c23a4fa3c72-cgu.0.rcgu.o)
 .rodata..Lanon.f5c1b2728a3d49275cd6fdb50aaed8e0.428
                0xffff80004025cda8        0x2 bin/obj/rslib.a(core-dca77d77b03929cc.core.bbd04c23a4fa3c72-cgu.0.rcgu.o)
 .rodata..Lanon.f5c1b2728a3d49275cd6fdb50aaed8e0.429
                0xffff80004025cdaa       0x18 bin/obj/rslib.a(core-dca77d77b03929cc.core.bbd04c23a4fa3c72-cgu.0.rcgu.o)
 .rodata..Lanon.f5c1b2728a3d49275cd6fdb50aaed8e0.430
                0xffff80004025cdc2        0xb bin/obj/rslib.a(core-dca77d77b03929cc.core.bbd04c23a4fa3c72-cgu.0.rcgu.o)
 .rodata..Lanon.f5c1b2728a3d49275cd6fdb50aaed8e0.431
                0xffff80004025cdcd        0xa bin/obj/rslib.a(core-dca77d77b03929cc.core.bbd04c23a4fa3c72-cgu.0.rcgu.o)
 *fill*         0xffff80004025cdd7        0x1 
 .rodata..Lanon.f5c1b2728a3d49275cd6fdb50aaed8e0.432
                0xffff80004025cdd8       0x20 bin/obj/rslib.a(core-dca77d77b03929cc.core.bbd04c23a4fa3c72-cgu.0.rcgu.o)
 .rodata..Lanon.f5c1b2728a3d49275cd6fdb50aaed8e0.433
                0xffff80004025cdf8        0x6 bin/obj/rslib.a(core-dca77d77b03929cc.core.bbd04c23a4fa3c72-cgu.0.rcgu.o)
 .rodata..Lanon.f5c1b2728a3d49275cd6fdb50aaed8e0.434
                0xffff80004025cdfe        0xa bin/obj/rslib.a(core-dca77d77b03929cc.core.bbd04c23a4fa3c72-cgu.0.rcgu.o)
 .rodata..Lanon.f5c1b2728a3d49275cd6fdb50aaed8e0.437
                0xffff80004025ce08       0x1a bin/obj/rslib.a(core-dca77d77b03929cc.core.bbd04c23a4fa3c72-cgu.0.rcgu.o)
 .rodata..Lanon.f5c1b2728a3d49275cd6fdb50aaed8e0.438
                0xffff80004025ce22       0x12 bin/obj/rslib.a(core-dca77d77b03929cc.core.bbd04c23a4fa3c72-cgu.0.rcgu.o)
 *fill*         0xffff80004025ce34        0x4 
 .rodata..Lanon.f5c1b2728a3d49275cd6fdb50aaed8e0.439
                0xffff80004025ce38       0x20 bin/obj/rslib.a(core-dca77d77b03929cc.core.bbd04c23a4fa3c72-cgu.0.rcgu.o)
 .rodata..Lanon.f5c1b2728a3d49275cd6fdb50aaed8e0.440
                0xffff80004025ce58       0x2a bin/obj/rslib.a(core-dca77d77b03929cc.core.bbd04c23a4fa3c72-cgu.0.rcgu.o)
 *fill*         0xffff80004025ce82        0x6 
 .rodata..Lanon.f5c1b2728a3d49275cd6fdb50aaed8e0.441
                0xffff80004025ce88       0x10 bin/obj/rslib.a(core-dca77d77b03929cc.core.bbd04c23a4fa3c72-cgu.0.rcgu.o)
 .rodata..Lanon.f5c1b2728a3d49275cd6fdb50aaed8e0.442
                0xffff80004025ce98       0x1f bin/obj/rslib.a(core-dca77d77b03929cc.core.bbd04c23a4fa3c72-cgu.0.rcgu.o)
 *fill*         0xffff80004025ceb7        0x1 
 .rodata..Lanon.f5c1b2728a3d49275cd6fdb50aaed8e0.443
                0xffff80004025ceb8       0x40 bin/obj/rslib.a(core-dca77d77b03929cc.core.bbd04c23a4fa3c72-cgu.0.rcgu.o)
 .rodata..Lanon.f5c1b2728a3d49275cd6fdb50aaed8e0.445
                0xffff80004025cef8       0x18 bin/obj/rslib.a(core-dca77d77b03929cc.core.bbd04c23a4fa3c72-cgu.0.rcgu.o)
 .rodata..Lanon.f5c1b2728a3d49275cd6fdb50aaed8e0.446
                0xffff80004025cf10       0x20 bin/obj/rslib.a(core-dca77d77b03929cc.core.bbd04c23a4fa3c72-cgu.0.rcgu.o)
 .rodata..Lanon.f5c1b2728a3d49275cd6fdb50aaed8e0.447
                0xffff80004025cf30       0x2b bin/obj/rslib.a(core-dca77d77b03929cc.core.bbd04c23a4fa3c72-cgu.0.rcgu.o)
 *fill*         0xffff80004025cf5b        0x5 
 .rodata..Lanon.f5c1b2728a3d49275cd6fdb50aaed8e0.449
                0xffff80004025cf60       0x18 bin/obj/rslib.a(core-dca77d77b03929cc.core.bbd04c23a4fa3c72-cgu.0.rcgu.o)
 .rodata..Lanon.f5c1b2728a3d49275cd6fdb50aaed8e0.450
                0xffff80004025cf78       0x18 bin/obj/rslib.a(core-dca77d77b03929cc.core.bbd04c23a4fa3c72-cgu.0.rcgu.o)
 .rodata..Lanon.f5c1b2728a3d49275cd6fdb50aaed8e0.451
                0xffff80004025cf90        0x7 bin/obj/rslib.a(core-dca77d77b03929cc.core.bbd04c23a4fa3c72-cgu.0.rcgu.o)
 *fill*         0xffff80004025cf97        0x1 
 .rodata..Lanon.f5c1b2728a3d49275cd6fdb50aaed8e0.452
                0xffff80004025cf98       0x10 bin/obj/rslib.a(core-dca77d77b03929cc.core.bbd04c23a4fa3c72-cgu.0.rcgu.o)
 .rodata..Lanon.f5c1b2728a3d49275cd6fdb50aaed8e0.453
                0xffff80004025cfa8        0x2 bin/obj/rslib.a(core-dca77d77b03929cc.core.bbd04c23a4fa3c72-cgu.0.rcgu.o)
 *fill*         0xffff80004025cfaa        0x6 
 .rodata..Lanon.f5c1b2728a3d49275cd6fdb50aaed8e0.454
                0xffff80004025cfb0       0x18 bin/obj/rslib.a(core-dca77d77b03929cc.core.bbd04c23a4fa3c72-cgu.0.rcgu.o)
 .rodata..Lanon.f5c1b2728a3d49275cd6fdb50aaed8e0.457
                0xffff80004025cfc8       0x20 bin/obj/rslib.a(core-dca77d77b03929cc.core.bbd04c23a4fa3c72-cgu.0.rcgu.o)
 .rodata..Lanon.f5c1b2728a3d49275cd6fdb50aaed8e0.459
                0xffff80004025cfe8       0x20 bin/obj/rslib.a(core-dca77d77b03929cc.core.bbd04c23a4fa3c72-cgu.0.rcgu.o)
 .rodata..Lanon.f5c1b2728a3d49275cd6fdb50aaed8e0.461
                0xffff80004025d008        0x6 bin/obj/rslib.a(core-dca77d77b03929cc.core.bbd04c23a4fa3c72-cgu.0.rcgu.o)
 .rodata..Lanon.f5c1b2728a3d49275cd6fdb50aaed8e0.462
                0xffff80004025d00e        0x7 bin/obj/rslib.a(core-dca77d77b03929cc.core.bbd04c23a4fa3c72-cgu.0.rcgu.o)
 *fill*         0xffff80004025d015        0x3 
 .rodata..Lanon.f5c1b2728a3d49275cd6fdb50aaed8e0.463
                0xffff80004025d018       0x30 bin/obj/rslib.a(core-dca77d77b03929cc.core.bbd04c23a4fa3c72-cgu.0.rcgu.o)
 .rodata..Lanon.f5c1b2728a3d49275cd6fdb50aaed8e0.464
                0xffff80004025d048        0xb bin/obj/rslib.a(core-dca77d77b03929cc.core.bbd04c23a4fa3c72-cgu.0.rcgu.o)
 .rodata..Lanon.f5c1b2728a3d49275cd6fdb50aaed8e0.465
                0xffff80004025d053       0x26 bin/obj/rslib.a(core-dca77d77b03929cc.core.bbd04c23a4fa3c72-cgu.0.rcgu.o)
 .rodata..Lanon.f5c1b2728a3d49275cd6fdb50aaed8e0.466
                0xffff80004025d079       0x1d bin/obj/rslib.a(core-dca77d77b03929cc.core.bbd04c23a4fa3c72-cgu.0.rcgu.o)
 .rodata..Lanon.f5c1b2728a3d49275cd6fdb50aaed8e0.467
                0xffff80004025d096       0x26 bin/obj/rslib.a(core-dca77d77b03929cc.core.bbd04c23a4fa3c72-cgu.0.rcgu.o)
 .rodata..Lanon.f5c1b2728a3d49275cd6fdb50aaed8e0.468
                0xffff80004025d0bc       0x26 bin/obj/rslib.a(core-dca77d77b03929cc.core.bbd04c23a4fa3c72-cgu.0.rcgu.o)
 .rodata..Lanon.f5c1b2728a3d49275cd6fdb50aaed8e0.469
                0xffff80004025d0e2       0x26 bin/obj/rslib.a(core-dca77d77b03929cc.core.bbd04c23a4fa3c72-cgu.0.rcgu.o)
 .rodata..Lanon.f5c1b2728a3d49275cd6fdb50aaed8e0.470
                0xffff80004025d108        0x1 bin/obj/rslib.a(core-dca77d77b03929cc.core.bbd04c23a4fa3c72-cgu.0.rcgu.o)
 *fill*         0xffff80004025d109        0x7 
 .rodata..Lanon.f5c1b2728a3d49275cd6fdb50aaed8e0.471
                0xffff80004025d110       0x30 bin/obj/rslib.a(core-dca77d77b03929cc.core.bbd04c23a4fa3c72-cgu.0.rcgu.o)
 .rodata..Lanon.f5c1b2728a3d49275cd6fdb50aaed8e0.472
                0xffff80004025d140       0x2d bin/obj/rslib.a(core-dca77d77b03929cc.core.bbd04c23a4fa3c72-cgu.0.rcgu.o)
 .rodata..Lanon.f5c1b2728a3d49275cd6fdb50aaed8e0.473
                0xffff80004025d16d       0x19 bin/obj/rslib.a(core-dca77d77b03929cc.core.bbd04c23a4fa3c72-cgu.0.rcgu.o)
 .rodata..Lanon.f5c1b2728a3d49275cd6fdb50aaed8e0.474
                0xffff80004025d186       0x1e bin/obj/rslib.a(core-dca77d77b03929cc.core.bbd04c23a4fa3c72-cgu.0.rcgu.o)
 .rodata..Lanon.f5c1b2728a3d49275cd6fdb50aaed8e0.475
                0xffff80004025d1a4       0x29 bin/obj/rslib.a(core-dca77d77b03929cc.core.bbd04c23a4fa3c72-cgu.0.rcgu.o)
 .rodata..Lanon.f5c1b2728a3d49275cd6fdb50aaed8e0.476
                0xffff80004025d1cd        0xb bin/obj/rslib.a(core-dca77d77b03929cc.core.bbd04c23a4fa3c72-cgu.0.rcgu.o)
 .rodata..Lanon.f5c1b2728a3d49275cd6fdb50aaed8e0.477
                0xffff80004025d1d8       0x20 bin/obj/rslib.a(core-dca77d77b03929cc.core.bbd04c23a4fa3c72-cgu.0.rcgu.o)
 .rodata..Lanon.f5c1b2728a3d49275cd6fdb50aaed8e0.479
                0xffff80004025d1f8        0x6 bin/obj/rslib.a(core-dca77d77b03929cc.core.bbd04c23a4fa3c72-cgu.0.rcgu.o)
 .rodata..Lanon.f5c1b2728a3d49275cd6fdb50aaed8e0.481
                0xffff80004025d1fe       0x19 bin/obj/rslib.a(core-dca77d77b03929cc.core.bbd04c23a4fa3c72-cgu.0.rcgu.o)
 .rodata..Lanon.f5c1b2728a3d49275cd6fdb50aaed8e0.482
                0xffff80004025d217       0x1b bin/obj/rslib.a(core-dca77d77b03929cc.core.bbd04c23a4fa3c72-cgu.0.rcgu.o)
 .rodata..Lanon.f5c1b2728a3d49275cd6fdb50aaed8e0.483
                0xffff80004025d232       0x1b bin/obj/rslib.a(core-dca77d77b03929cc.core.bbd04c23a4fa3c72-cgu.0.rcgu.o)
 .rodata..Lanon.f5c1b2728a3d49275cd6fdb50aaed8e0.484
                0xffff80004025d24d       0x1d bin/obj/rslib.a(core-dca77d77b03929cc.core.bbd04c23a4fa3c72-cgu.0.rcgu.o)
 .rodata..Lanon.f5c1b2728a3d49275cd6fdb50aaed8e0.485
                0xffff80004025d26a       0x22 bin/obj/rslib.a(core-dca77d77b03929cc.core.bbd04c23a4fa3c72-cgu.0.rcgu.o)
 .rodata..Lanon.f5c1b2728a3d49275cd6fdb50aaed8e0.486
                0xffff80004025d28c       0x22 bin/obj/rslib.a(core-dca77d77b03929cc.core.bbd04c23a4fa3c72-cgu.0.rcgu.o)
 .rodata..Lanon.f5c1b2728a3d49275cd6fdb50aaed8e0.487
                0xffff80004025d2ae       0x2f bin/obj/rslib.a(core-dca77d77b03929cc.core.bbd04c23a4fa3c72-cgu.0.rcgu.o)
 .rodata..Lanon.f5c1b2728a3d49275cd6fdb50aaed8e0.488
                0xffff80004025d2dd       0x3b bin/obj/rslib.a(core-dca77d77b03929cc.core.bbd04c23a4fa3c72-cgu.0.rcgu.o)
 .rodata..Lanon.f5c1b2728a3d49275cd6fdb50aaed8e0.489
                0xffff80004025d318       0x48 bin/obj/rslib.a(core-dca77d77b03929cc.core.bbd04c23a4fa3c72-cgu.0.rcgu.o)
 .rodata..Lanon.f5c1b2728a3d49275cd6fdb50aaed8e0.490
                0xffff80004025d360        0xc bin/obj/rslib.a(core-dca77d77b03929cc.core.bbd04c23a4fa3c72-cgu.0.rcgu.o)
 .rodata..Lanon.f5c1b2728a3d49275cd6fdb50aaed8e0.491
                0xffff80004025d36c        0x2 bin/obj/rslib.a(core-dca77d77b03929cc.core.bbd04c23a4fa3c72-cgu.0.rcgu.o)
 .rodata..Lanon.f5c1b2728a3d49275cd6fdb50aaed8e0.492
                0xffff80004025d36e       0x23 bin/obj/rslib.a(core-dca77d77b03929cc.core.bbd04c23a4fa3c72-cgu.0.rcgu.o)
 .rodata..Lanon.f5c1b2728a3d49275cd6fdb50aaed8e0.493
                0xffff80004025d391       0x1d bin/obj/rslib.a(core-dca77d77b03929cc.core.bbd04c23a4fa3c72-cgu.0.rcgu.o)
 .rodata..Lanon.f5c1b2728a3d49275cd6fdb50aaed8e0.494
                0xffff80004025d3ae       0x24 bin/obj/rslib.a(core-dca77d77b03929cc.core.bbd04c23a4fa3c72-cgu.0.rcgu.o)
 .rodata..Lanon.f5c1b2728a3d49275cd6fdb50aaed8e0.495
                0xffff80004025d3d2       0x15 bin/obj/rslib.a(core-dca77d77b03929cc.core.bbd04c23a4fa3c72-cgu.0.rcgu.o)
 *fill*         0xffff80004025d3e7        0x1 
 .rodata..Lanon.f5c1b2728a3d49275cd6fdb50aaed8e0.496
                0xffff80004025d3e8       0x30 bin/obj/rslib.a(core-dca77d77b03929cc.core.bbd04c23a4fa3c72-cgu.0.rcgu.o)
 .rodata..Lanon.f5c1b2728a3d49275cd6fdb50aaed8e0.497
                0xffff80004025d418       0x30 bin/obj/rslib.a(core-dca77d77b03929cc.core.bbd04c23a4fa3c72-cgu.0.rcgu.o)
 .rodata..Lanon.f5c1b2728a3d49275cd6fdb50aaed8e0.498
                0xffff80004025d448       0x30 bin/obj/rslib.a(core-dca77d77b03929cc.core.bbd04c23a4fa3c72-cgu.0.rcgu.o)
 .rodata..Lanon.f5c1b2728a3d49275cd6fdb50aaed8e0.499
                0xffff80004025d478       0x30 bin/obj/rslib.a(core-dca77d77b03929cc.core.bbd04c23a4fa3c72-cgu.0.rcgu.o)
 .rodata..Lanon.f5c1b2728a3d49275cd6fdb50aaed8e0.500
                0xffff80004025d4a8       0x1a bin/obj/rslib.a(core-dca77d77b03929cc.core.bbd04c23a4fa3c72-cgu.0.rcgu.o)
 *fill*         0xffff80004025d4c2        0x6 
 .rodata..Lanon.f5c1b2728a3d49275cd6fdb50aaed8e0.501
                0xffff80004025d4c8       0x10 bin/obj/rslib.a(core-dca77d77b03929cc.core.bbd04c23a4fa3c72-cgu.0.rcgu.o)
 .rodata..Lanon.f5c1b2728a3d49275cd6fdb50aaed8e0.502
                0xffff80004025d4d8       0x20 bin/obj/rslib.a(core-dca77d77b03929cc.core.bbd04c23a4fa3c72-cgu.0.rcgu.o)
 .rodata..Lanon.f5c1b2728a3d49275cd6fdb50aaed8e0.504
                0xffff80004025d4f8       0x18 bin/obj/rslib.a(core-dca77d77b03929cc.core.bbd04c23a4fa3c72-cgu.0.rcgu.o)
 .rodata..Lanon.f5c1b2728a3d49275cd6fdb50aaed8e0.505
                0xffff80004025d510        0x2 bin/obj/rslib.a(core-dca77d77b03929cc.core.bbd04c23a4fa3c72-cgu.0.rcgu.o)
 *fill*         0xffff80004025d512        0x6 
 .rodata..Lanon.f5c1b2728a3d49275cd6fdb50aaed8e0.506
                0xffff80004025d518       0x20 bin/obj/rslib.a(core-dca77d77b03929cc.core.bbd04c23a4fa3c72-cgu.0.rcgu.o)
 .rodata..Lanon.f5c1b2728a3d49275cd6fdb50aaed8e0.507
                0xffff80004025d538        0x1 bin/obj/rslib.a(core-dca77d77b03929cc.core.bbd04c23a4fa3c72-cgu.0.rcgu.o)
 *fill*         0xffff80004025d539        0x7 
 .rodata..Lanon.f5c1b2728a3d49275cd6fdb50aaed8e0.508
                0xffff80004025d540       0x30 bin/obj/rslib.a(core-dca77d77b03929cc.core.bbd04c23a4fa3c72-cgu.0.rcgu.o)
 .rodata..Lanon.f5c1b2728a3d49275cd6fdb50aaed8e0.509
                0xffff80004025d570       0x18 bin/obj/rslib.a(core-dca77d77b03929cc.core.bbd04c23a4fa3c72-cgu.0.rcgu.o)
 .rodata..Lanon.f5c1b2728a3d49275cd6fdb50aaed8e0.510
                0xffff80004025d588       0x29 bin/obj/rslib.a(core-dca77d77b03929cc.core.bbd04c23a4fa3c72-cgu.0.rcgu.o)
 .rodata..Lanon.f5c1b2728a3d49275cd6fdb50aaed8e0.511
                0xffff80004025d5b1       0x3d bin/obj/rslib.a(core-dca77d77b03929cc.core.bbd04c23a4fa3c72-cgu.0.rcgu.o)
 *fill*         0xffff80004025d5ee        0x2 
 .rodata..Lanon.f5c1b2728a3d49275cd6fdb50aaed8e0.512
                0xffff80004025d5f0       0x10 bin/obj/rslib.a(core-dca77d77b03929cc.core.bbd04c23a4fa3c72-cgu.0.rcgu.o)
 .rodata..Lanon.f5c1b2728a3d49275cd6fdb50aaed8e0.513
                0xffff80004025d600       0x23 bin/obj/rslib.a(core-dca77d77b03929cc.core.bbd04c23a4fa3c72-cgu.0.rcgu.o)
 .rodata..Lanon.f5c1b2728a3d49275cd6fdb50aaed8e0.514
                0xffff80004025d623       0x24 bin/obj/rslib.a(core-dca77d77b03929cc.core.bbd04c23a4fa3c72-cgu.0.rcgu.o)
 .rodata..Lanon.f5c1b2728a3d49275cd6fdb50aaed8e0.515
                0xffff80004025d647       0x18 bin/obj/rslib.a(core-dca77d77b03929cc.core.bbd04c23a4fa3c72-cgu.0.rcgu.o)
 .rodata..Lanon.f5c1b2728a3d49275cd6fdb50aaed8e0.516
                0xffff80004025d65f       0x18 bin/obj/rslib.a(core-dca77d77b03929cc.core.bbd04c23a4fa3c72-cgu.0.rcgu.o)
 .rodata..Lanon.f5c1b2728a3d49275cd6fdb50aaed8e0.518
                0xffff80004025d677       0x1c bin/obj/rslib.a(core-dca77d77b03929cc.core.bbd04c23a4fa3c72-cgu.0.rcgu.o)
 *fill*         0xffff80004025d693        0x5 
 .rodata..Lswitch.table._ZN4core9panicking19assert_failed_inner17h09d676bdb30b5f2cE
                0xffff80004025d698       0x18 bin/obj/rslib.a(core-dca77d77b03929cc.core.bbd04c23a4fa3c72-cgu.0.rcgu.o)
 .rodata..Lswitch.table._ZN4core9panicking19assert_failed_inner17h09d676bdb30b5f2cE.210
                0xffff80004025d6b0       0x18 bin/obj/rslib.a(core-dca77d77b03929cc.core.bbd04c23a4fa3c72-cgu.0.rcgu.o)
 .rodata..Lswitch.table._ZN70_$LT$core..num..error..ParseIntError$u20$as$u20$core..fmt..Display$GT$3fmt17hc33f567679727834E
                0xffff80004025d6c8       0x28 bin/obj/rslib.a(core-dca77d77b03929cc.core.bbd04c23a4fa3c72-cgu.0.rcgu.o)
 .rodata..Lswitch.table._ZN70_$LT$core..num..error..ParseIntError$u20$as$u20$core..fmt..Display$GT$3fmt17hc33f567679727834E.211
                0xffff80004025d6f0       0x28 bin/obj/rslib.a(core-dca77d77b03929cc.core.bbd04c23a4fa3c72-cgu.0.rcgu.o)
 .rodata..Lswitch.table._ZN72_$LT$core..net..parser..AddrParseError$u20$as$u20$core..fmt..Display$GT$3fmt17h2ca00bd4bb12a433E
                0xffff80004025d718       0x30 bin/obj/rslib.a(core-dca77d77b03929cc.core.bbd04c23a4fa3c72-cgu.0.rcgu.o)
 .rodata..Lswitch.table._ZN72_$LT$core..net..parser..AddrParseError$u20$as$u20$core..fmt..Display$GT$3fmt17h2ca00bd4bb12a433E.212
                0xffff80004025d748       0x30 bin/obj/rslib.a(core-dca77d77b03929cc.core.bbd04c23a4fa3c72-cgu.0.rcgu.o)
 *(.rodata.*)
 *(.platform_info)
                0xffff80004025d778                . = ALIGN (0x8)
                0xffff80004025d778                __kernel_init_stage0_start = .
 *(.kernel_init_stage0)
 .kernel_init_stage0
                0xffff80004025d778       0x18 bin/obj/kernel/init/init_drivers.o
 .kernel_init_stage0
                0xffff80004025d790        0x8 bin/obj/kernel/init/init.o
 .kernel_init_stage0
                0xffff80004025d798        0x8 bin/obj/kernel/exception/el1/irq.o
                0xffff80004025d7a0                __kernel_init_stage0_end = .
                0xffff80004025d7a0                . = ALIGN (0x8)
                0xffff80004025d7a0                __kernel_init_stage1_start = .
 *(.kernel_init_stage1)
 .kernel_init_stage1
                0xffff80004025d7a0       0x10 bin/obj/kernel/init/init_drivers.o
 .kernel_init_stage1
                0xffff80004025d7b0        0x8 bin/obj/kernel/init/init.o
                0xffff80004025d7b8                __kernel_init_stage1_end = .
                0xffff80004025d7b8                . = ALIGN (0x8)
                0xffff80004025d7b8                __kernel_init_stage2_start = .
 *(.kernel_init_stage2)
 .kernel_init_stage2
                0xffff80004025d7b8       0x18 bin/obj/kernel/init/init_drivers.o
 .kernel_init_stage2
                0xffff80004025d7d0        0x8 bin/obj/kernel/init/init.o
                0xffff80004025d7d8                __kernel_init_stage2_end = .
                0xffff80004025e000                . = ALIGN (0x1000)
 *fill*         0xffff80004025d7d8      0x828 
                0xffff80004025e000                __rodata_end = .
                0x0000000000027000                __rodata_size = (__rodata_end - __rodata_start)

.eh_frame       0xffff80004025e000       0x3c load address 0x000000004025e000
 .eh_frame      0xffff80004025e000       0x28 bin/obj/rslib.a(ee225a53f1a5b703-lse_ldadd4_acq_rel.o)
 .eh_frame      0xffff80004025e028       0x14 bin/obj/rslib.a(ee225a53f1a5b703-lse_ldadd8_acq_rel.o)
                                         0x28 (size before relaxing)

.data           0xffff80004025f000     0x1000 load address 0x000000004025f000
                0xffff80004025f000                __data_start = .
 *(.data*)
 .data          0xffff80004025f000        0x0 bin/obj/__kernel/mm/mm.o
 .data          0xffff80004025f000        0x0 bin/obj/__kernel/mm/reloc/reloc.o
 .data          0xffff80004025f000        0x0 bin/obj/__kernel/scheduler/scheduler.o
 .data          0xffff80004025f000        0x0 bin/obj/__arm/cache/cache.o
 .data          0xffff80004025f000        0x0 bin/obj/__arm/cache/icache.o
 .data          0xffff80004025f000        0x0 bin/obj/__arm/cache/dcache.o
 .data          0xffff80004025f000        0x0 bin/obj/__arm/tfa/smccc.o
 .data          0xffff80004025f000        0x0 bin/obj/__arm/sysregs/arm_generic_timer.o
 .data          0xffff80004025f000        0x0 bin/obj/__arm/exceptions/el2_vectors.o
 .data          0xffff80004025f000        0x0 bin/obj/__arm/exceptions/exceptions.o
 .data          0xffff80004025f000        0x0 bin/obj/__arm/exceptions/el1_vectors.o
 .data          0xffff80004025f000        0x0 bin/obj/__arm/cpu.o
 .data          0xffff80004025f000        0x0 bin/obj/__arm/mmu/regs/mmu_sysregs.o
 .data          0xffff80004025f000        0x0 bin/obj/__lib/lock/spinlock_irq.o
 .data          0xffff80004025f000        0x0 bin/obj/__lib/lock/spinlock.o
 .data          0xffff80004025f000        0x0 bin/obj/__lib/lock/irqlock.o
 .data          0xffff80004025f000        0x0 bin/obj/__lib/lock/corelock.o
 .data          0xffff80004025f000        0x0 bin/obj/__lib/mem/memcpy/memcpy.o
 .data          0xffff80004025f000        0x0 bin/obj/__lib/mem/memzero/memzero.o
 .data          0xffff80004025f000        0x0 bin/obj/__lib/mem/mem.o
 .data          0xffff80004025f000        0x0 bin/obj/__boot/clean_bss.o
 .data          0xffff80004025f000        0x0 bin/obj/__boot/el1.o
 .data          0xffff80004025f000        0x0 bin/obj/__boot/stacks.o
 .data          0xffff80004025f000        0x0 bin/obj/__boot/secondary_entry.o
 .data          0xffff80004025f000        0x0 bin/obj/__boot/gpr.o
 .data          0xffff80004025f000        0x0 bin/obj/__boot/boot.o
 .data          0xffff80004025f000        0x0 bin/obj/__drivers/tmu/tmu_critical_default.o
 .data          0xffff80004025f000        0x0 bin/obj/__drivers/interrupts/gicv3/gicv3_arm_interface.o
 .data          0xffff80004025f000       0x10 bin/obj/kernel/devices/drivers.o
                0xffff80004025f000                UART2_DRIVER
 .data          0xffff80004025f010        0x0 bin/obj/kernel/init/early_init.o
 .data          0xffff80004025f010        0x0 bin/obj/kernel/init/init_drivers.o
 .data          0xffff80004025f010        0x0 bin/obj/kernel/init/init.o
 .data          0xffff80004025f010        0x0 bin/obj/kernel/lib/smp.o
 .data          0xffff80004025f010        0x0 bin/obj/kernel/lib/kvec.o
 .data          0xffff80004025f010        0x0 bin/obj/kernel/mm/phys/page_allocator.o
 .data          0xffff80004025f010        0x0 bin/obj/kernel/mm/init/mem_regions/mem_regions.o
 .data          0xffff80004025f010        0x0 bin/obj/kernel/mm/init/mem_regions/early_kalloc.o
 .data          0xffff80004025f010        0x0 bin/obj/kernel/mm/init/init.o
 .data          0xffff80004025f010        0x0 bin/obj/kernel/mm/init/identity_mapping.o
 .data          0xffff80004025f010        0x0 bin/obj/kernel/mm/virt/containers/containers.o
 .data          0xffff80004025f010        0x0 bin/obj/kernel/mm/virt/mdt/mdt.o
 .data          0xffff80004025f010        0x0 bin/obj/kernel/mm/virt/vmalloc.o
 .data          0xffff80004025f010        0x0 bin/obj/kernel/mm/malloc/raw_kmalloc/raw_kmalloc.o
 .data          0xffff80004025f010        0x0 bin/obj/kernel/mm/malloc/cache_malloc/cache_malloc.o
 .data          0xffff80004025f010        0x0 bin/obj/kernel/mm/malloc/internal/reserve_malloc.o
 .data          0xffff80004025f010        0x0 bin/obj/kernel/mm/malloc/kmalloc/kmalloc.o
 .data          0xffff80004025f010        0x0 bin/obj/kernel/mm/malloc/umalloc.o
 .data          0xffff80004025f010        0x0 bin/obj/kernel/mm/reloc/reloc.o
 .data          0xffff80004025f010        0x0 bin/obj/kernel/mm/mm_mmu/mm_mmu.o
 .data          0xffff80004025f010        0x0 bin/obj/kernel/mm/mm.o
 .data          0xffff80004025f010        0x0 bin/obj/kernel/mm/mm_info.o
 .data          0xffff80004025f010        0x0 bin/obj/kernel/mm/elf.o
 .data          0xffff80004025f010        0x0 bin/obj/kernel/io/term/buffers.o
 .data          0xffff80004025f010        0x0 bin/obj/kernel/io/term/term.o
 .data          0xffff80004025f010        0x0 bin/obj/kernel/io/stdio.o
 .data          0xffff80004025f010        0x0 bin/obj/kernel/io/stdputc.o
 .data          0xffff80004025f010        0x0 bin/obj/kernel/panic/panic_exception/esr/data_abort.o
 .data          0xffff80004025f010        0x0 bin/obj/kernel/panic/panic_exception/esr/esr.o
 .data          0xffff80004025f010        0x0 bin/obj/kernel/panic/panic_exception/panic_exception_handlers.o
 .data          0xffff80004025f010        0x0 bin/obj/kernel/panic/panic.o
 .data          0xffff80004025f010        0x0 bin/obj/kernel/exception/el0/sync/sync.o
 .data          0xffff80004025f010        0x0 bin/obj/kernel/exception/el1/irq.o
 .data          0xffff80004025f010        0x0 bin/obj/kernel/scheduler/task.o
 .data          0xffff80004025f010        0x0 bin/obj/kernel/scheduler/scheduler.o
 .data          0xffff80004025f010        0x0 bin/obj/kernel/scheduler/thread.o
 .data          0xffff80004025f010        0x0 bin/obj/kernel/syscall/handlers/exit.o
 .data          0xffff80004025f010        0x0 bin/obj/kernel/syscall/handlers/print.o
 .data          0xffff80004025f010        0x0 bin/obj/kernel/syscall/syscall.o
 .data          0xffff80004025f010        0x0 bin/obj/kernel/userspace_embedded_examples.o
 .data          0xffff80004025f010        0x0 bin/obj/kernel/kernel_entry.o
 .data          0xffff80004025f010        0x0 bin/obj/arm/tfa/smccc.o
 .data          0xffff80004025f010        0x0 bin/obj/arm/exceptions/handlers/el1/el1_low_a32_serror.o
 .data          0xffff80004025f010        0x0 bin/obj/arm/exceptions/handlers/el1/el1_low_a32_fiq.o
 .data          0xffff80004025f010        0x0 bin/obj/arm/exceptions/handlers/el1/el1_cur_spx_fiq.o
 .data          0xffff80004025f010        0x0 bin/obj/arm/exceptions/handlers/el1/el1_cur_spx_serror.o
 .data          0xffff80004025f010        0x0 bin/obj/arm/exceptions/handlers/el1/el1_low_a32_irq.o
 .data          0xffff80004025f010        0x0 bin/obj/arm/exceptions/handlers/el1/el1_low_a64_fiq.o
 .data          0xffff80004025f010        0x0 bin/obj/arm/exceptions/handlers/el1/el1_cur_sp0_sync.o
 .data          0xffff80004025f010        0x0 bin/obj/arm/exceptions/handlers/el1/el1_low_a64_serror.o
 .data          0xffff80004025f010        0x0 bin/obj/arm/exceptions/handlers/el1/el1_low_a32_sync.o
 .data          0xffff80004025f010        0x0 bin/obj/arm/exceptions/handlers/el1/el1_cur_spx_sync.o
 .data          0xffff80004025f010        0x0 bin/obj/arm/exceptions/handlers/el1/el1_cur_sp0_fiq.o
 .data          0xffff80004025f010        0x0 bin/obj/arm/exceptions/handlers/el1/el1_cur_sp0_serror.o
 .data          0xffff80004025f010        0x0 bin/obj/arm/exceptions/handlers/el1/el1_cur_sp0_irq.o
 .data          0xffff80004025f010        0x0 bin/obj/arm/exceptions/handlers/el1/el1_cur_spx_irq.o
 .data          0xffff80004025f010        0x0 bin/obj/arm/exceptions/handlers/el1/el1_low_a64_irq.o
 .data          0xffff80004025f010        0x0 bin/obj/arm/exceptions/handlers/el1/el1_low_a64_sync.o
 .data          0xffff80004025f010        0x0 bin/obj/arm/exceptions/handlers/el2/el2_low_a32_serror.o
 .data          0xffff80004025f010        0x0 bin/obj/arm/exceptions/handlers/el2/el2_cur_spx_serror.o
 .data          0xffff80004025f010        0x0 bin/obj/arm/exceptions/handlers/el2/el2_low_a64_serror.o
 .data          0xffff80004025f010        0x0 bin/obj/arm/exceptions/handlers/el2/el2_low_a64_sync.o
 .data          0xffff80004025f010        0x0 bin/obj/arm/exceptions/handlers/el2/el2_cur_sp0_irq.o
 .data          0xffff80004025f010        0x0 bin/obj/arm/exceptions/handlers/el2/el2_cur_sp0_serror.o
 .data          0xffff80004025f010        0x0 bin/obj/arm/exceptions/handlers/el2/el2_low_a64_irq.o
 .data          0xffff80004025f010        0x0 bin/obj/arm/exceptions/handlers/el2/el2_low_a64_fiq.o
 .data          0xffff80004025f010        0x0 bin/obj/arm/exceptions/handlers/el2/el2_cur_spx_fiq.o
 .data          0xffff80004025f010        0x0 bin/obj/arm/exceptions/handlers/el2/el2_low_a32_irq.o
 .data          0xffff80004025f010        0x0 bin/obj/arm/exceptions/handlers/el2/el2_cur_sp0_fiq.o
 .data          0xffff80004025f010        0x0 bin/obj/arm/exceptions/handlers/el2/el2_low_a32_fiq.o
 .data          0xffff80004025f010        0x0 bin/obj/arm/exceptions/handlers/el2/el2_cur_spx_sync.o
 .data          0xffff80004025f010        0x0 bin/obj/arm/exceptions/handlers/el2/el2_low_a32_sync.o
 .data          0xffff80004025f010        0x0 bin/obj/arm/exceptions/handlers/el2/el2_cur_sp0_sync.o
 .data          0xffff80004025f010        0x0 bin/obj/arm/exceptions/handlers/el2/el2_cur_spx_irq.o
 .data          0xffff80004025f010        0x0 bin/obj/arm/exceptions/handlers/exception_macros.o
 .data          0xffff80004025f010        0x0 bin/obj/arm/exceptions/exceptions.o
 .data          0xffff80004025f010        0x0 bin/obj/arm/mmu/mmu.o
 .data          0xffff80004025f010        0x0 bin/obj/arm/mmu/mmu_core.o
 .data          0xffff80004025f010        0x0 bin/obj/arm/cpu.o
 .data          0xffff80004025f010        0x0 bin/obj/lib/lock/corelock.o
 .data          0xffff80004025f010        0x0 bin/obj/lib/lock/unlock_defer.o
 .data          0xffff80004025f010        0x0 bin/obj/lib/string/string.o
 .data          0xffff80004025f010        0x0 bin/obj/lib/string/fmt.o
 .data          0xffff80004025f010        0x0 bin/obj/lib/mem/memcpy/memcpy.o
 .data          0xffff80004025f010        0x0 bin/obj/lib/mem/mem.o
 .data          0xffff80004025f010        0x0 bin/obj/drivers/arm_generic_timer/arm_generic_timer.o
 .data          0xffff80004025f010        0x0 bin/obj/drivers/tmu/tmu.o
 .data          0xffff80004025f010        0x0 bin/obj/drivers/interrupts/gicv3/gicv3.o
 .data          0xffff80004025f010        0x0 bin/obj/drivers/uart/uart.o
 .data          0xffff80004025f010        0x0 bin/obj/rslib.a(ee225a53f1a5b703-lse_ldadd4_acq_rel.o)
 .data          0xffff80004025f010        0x0 bin/obj/rslib.a(ee225a53f1a5b703-lse_ldadd8_acq_rel.o)
 .data          0xffff80004025f010        0x0 bin/obj/rslib.a(670c1ed24249df13-aarch64.o)
                0xffff800040260000                . = ALIGN (0x1000)
 *fill*         0xffff80004025f010      0xff0 
                0xffff800040260000                __data_end = .
                0x0000000000001000                __data_size = (__data_end - __data_start)

.igot.plt       0xffff800040260000        0x0 load address 0x0000000040260000
 .igot.plt      0xffff800040260000        0x0 bin/obj/__kernel/mm/reloc/reloc.o

.bss            0xffff800040260000     0xb000 load address 0x0000000040260000
                0xffff800040260000                __bss_start = .
 *(.bss*)
 .bss           0xffff800040260000        0x0 bin/obj/__kernel/mm/mm.o
 .bss           0xffff800040260000        0x0 bin/obj/__kernel/mm/reloc/reloc.o
 .bss           0xffff800040260000        0x0 bin/obj/__kernel/scheduler/scheduler.o
 .bss           0xffff800040260000        0x0 bin/obj/__arm/cache/cache.o
 .bss           0xffff800040260000        0x0 bin/obj/__arm/cache/icache.o
 .bss           0xffff800040260000        0x0 bin/obj/__arm/cache/dcache.o
 .bss           0xffff800040260000        0x0 bin/obj/__arm/tfa/smccc.o
 .bss           0xffff800040260000        0x0 bin/obj/__arm/sysregs/arm_generic_timer.o
 .bss           0xffff800040260000        0x0 bin/obj/__arm/exceptions/el2_vectors.o
 .bss           0xffff800040260000        0x0 bin/obj/__arm/exceptions/exceptions.o
 .bss           0xffff800040260000        0x0 bin/obj/__arm/exceptions/el1_vectors.o
 .bss           0xffff800040260000        0x0 bin/obj/__arm/cpu.o
 .bss           0xffff800040260000        0x0 bin/obj/__arm/mmu/regs/mmu_sysregs.o
 .bss           0xffff800040260000        0x0 bin/obj/__lib/lock/spinlock_irq.o
 .bss           0xffff800040260000        0x0 bin/obj/__lib/lock/spinlock.o
 .bss           0xffff800040260000        0x0 bin/obj/__lib/lock/irqlock.o
 .bss           0xffff800040260000        0x0 bin/obj/__lib/lock/corelock.o
 .bss           0xffff800040260000        0x0 bin/obj/__lib/mem/memcpy/memcpy.o
 .bss           0xffff800040260000        0x0 bin/obj/__lib/mem/memzero/memzero.o
 .bss           0xffff800040260000        0x0 bin/obj/__lib/mem/mem.o
 .bss           0xffff800040260000        0x0 bin/obj/__boot/clean_bss.o
 .bss           0xffff800040260000        0x0 bin/obj/__boot/el1.o
 .bss           0xffff800040260000        0x0 bin/obj/__boot/stacks.o
 .bss           0xffff800040260000        0x0 bin/obj/__boot/secondary_entry.o
 .bss           0xffff800040260000        0x0 bin/obj/__boot/gpr.o
 .bss           0xffff800040260000        0x0 bin/obj/__boot/boot.o
 .bss           0xffff800040260000        0x0 bin/obj/__drivers/tmu/tmu_critical_default.o
 .bss           0xffff800040260000        0x0 bin/obj/__drivers/interrupts/gicv3/gicv3_arm_interface.o
 .bss           0xffff800040260000     0x93c0 bin/obj/kernel/devices/drivers.o
 .bss           0xffff8000402693c0        0x0 bin/obj/kernel/init/early_init.o
 .bss           0xffff8000402693c0        0x0 bin/obj/kernel/init/init_drivers.o
 .bss           0xffff8000402693c0        0x0 bin/obj/kernel/init/init.o
 .bss           0xffff8000402693c0        0x0 bin/obj/kernel/lib/smp.o
 .bss           0xffff8000402693c0        0x0 bin/obj/kernel/lib/kvec.o
 .bss           0xffff8000402693c0       0x20 bin/obj/kernel/mm/phys/page_allocator.o
 .bss           0xffff8000402693e0        0x0 bin/obj/kernel/mm/init/mem_regions/mem_regions.o
 .bss           0xffff8000402693e0       0x30 bin/obj/kernel/mm/init/mem_regions/early_kalloc.o
 .bss           0xffff800040269410        0x0 bin/obj/kernel/mm/init/init.o
 .bss           0xffff800040269410       0x30 bin/obj/kernel/mm/init/identity_mapping.o
                0xffff800040269410                early_lo_mapping
 .bss           0xffff800040269440       0x10 bin/obj/kernel/mm/virt/containers/containers.o
 .bss           0xffff800040269450        0x8 bin/obj/kernel/mm/virt/mdt/mdt.o
 .bss           0xffff800040269458       0x20 bin/obj/kernel/mm/virt/vmalloc.o
 .bss           0xffff800040269478        0x8 bin/obj/kernel/mm/malloc/raw_kmalloc/raw_kmalloc.o
 .bss           0xffff800040269480      0x1c0 bin/obj/kernel/mm/malloc/cache_malloc/cache_malloc.o
 .bss           0xffff800040269640      0x208 bin/obj/kernel/mm/malloc/internal/reserve_malloc.o
 .bss           0xffff800040269848        0x0 bin/obj/kernel/mm/malloc/kmalloc/kmalloc.o
 .bss           0xffff800040269848        0x0 bin/obj/kernel/mm/malloc/umalloc.o
 .bss           0xffff800040269848        0x0 bin/obj/kernel/mm/reloc/reloc.o
 *fill*         0xffff800040269848       0x38 
 .bss           0xffff800040269880      0x170 bin/obj/kernel/mm/mm_mmu/mm_mmu.o
                0xffff800040269880                UNMAPPED_LO
                0xffff8000402699c0                KERNEL_MAPPING
 .bss           0xffff8000402699f0        0x0 bin/obj/kernel/mm/mm.o
 .bss           0xffff8000402699f0       0x30 bin/obj/kernel/mm/mm_info.o
 .bss           0xffff800040269a20        0x0 bin/obj/kernel/mm/elf.o
 .bss           0xffff800040269a20        0x0 bin/obj/kernel/io/term/buffers.o
 .bss           0xffff800040269a20        0x8 bin/obj/kernel/io/term/term.o
 .bss           0xffff800040269a28       0xe0 bin/obj/kernel/io/stdio.o
 .bss           0xffff800040269b08        0x0 bin/obj/kernel/io/stdputc.o
 .bss           0xffff800040269b08        0x0 bin/obj/kernel/panic/panic_exception/esr/data_abort.o
 .bss           0xffff800040269b08        0x0 bin/obj/kernel/panic/panic_exception/esr/esr.o
 .bss           0xffff800040269b08        0x0 bin/obj/kernel/panic/panic_exception/panic_exception_handlers.o
 .bss           0xffff800040269b08        0x0 bin/obj/kernel/panic/panic.o
 .bss           0xffff800040269b08        0x0 bin/obj/kernel/exception/el0/sync/sync.o
 *fill*         0xffff800040269b08        0x8 
 .bss           0xffff800040269b10      0xc00 bin/obj/kernel/exception/el1/irq.o
 .bss           0xffff80004026a710        0x8 bin/obj/kernel/scheduler/task.o
 *fill*         0xffff80004026a718       0x28 
 .bss           0xffff80004026a740      0x1c0 bin/obj/kernel/scheduler/scheduler.o
 .bss           0xffff80004026a900        0x0 bin/obj/kernel/scheduler/thread.o
 .bss           0xffff80004026a900        0x0 bin/obj/kernel/syscall/handlers/exit.o
 .bss           0xffff80004026a900        0x0 bin/obj/kernel/syscall/handlers/print.o
 .bss           0xffff80004026a900        0x0 bin/obj/kernel/syscall/syscall.o
 .bss           0xffff80004026a900        0x0 bin/obj/kernel/userspace_embedded_examples.o
 .bss           0xffff80004026a900        0x0 bin/obj/kernel/kernel_entry.o
 .bss           0xffff80004026a900        0x0 bin/obj/arm/tfa/smccc.o
 .bss           0xffff80004026a900        0x0 bin/obj/arm/exceptions/handlers/el1/el1_low_a32_serror.o
 .bss           0xffff80004026a900        0x0 bin/obj/arm/exceptions/handlers/el1/el1_low_a32_fiq.o
 .bss           0xffff80004026a900        0x0 bin/obj/arm/exceptions/handlers/el1/el1_cur_spx_fiq.o
 .bss           0xffff80004026a900        0x0 bin/obj/arm/exceptions/handlers/el1/el1_cur_spx_serror.o
 .bss           0xffff80004026a900        0x0 bin/obj/arm/exceptions/handlers/el1/el1_low_a32_irq.o
 .bss           0xffff80004026a900        0x0 bin/obj/arm/exceptions/handlers/el1/el1_low_a64_fiq.o
 .bss           0xffff80004026a900        0x0 bin/obj/arm/exceptions/handlers/el1/el1_cur_sp0_sync.o
 .bss           0xffff80004026a900        0x0 bin/obj/arm/exceptions/handlers/el1/el1_low_a64_serror.o
 .bss           0xffff80004026a900        0x0 bin/obj/arm/exceptions/handlers/el1/el1_low_a32_sync.o
 .bss           0xffff80004026a900        0x0 bin/obj/arm/exceptions/handlers/el1/el1_cur_spx_sync.o
 .bss           0xffff80004026a900        0x0 bin/obj/arm/exceptions/handlers/el1/el1_cur_sp0_fiq.o
 .bss           0xffff80004026a900        0x0 bin/obj/arm/exceptions/handlers/el1/el1_cur_sp0_serror.o
 .bss           0xffff80004026a900        0x0 bin/obj/arm/exceptions/handlers/el1/el1_cur_sp0_irq.o
 .bss           0xffff80004026a900        0x0 bin/obj/arm/exceptions/handlers/el1/el1_cur_spx_irq.o
 .bss           0xffff80004026a900        0x0 bin/obj/arm/exceptions/handlers/el1/el1_low_a64_irq.o
 .bss           0xffff80004026a900        0x0 bin/obj/arm/exceptions/handlers/el1/el1_low_a64_sync.o
 .bss           0xffff80004026a900        0x0 bin/obj/arm/exceptions/handlers/el2/el2_low_a32_serror.o
 .bss           0xffff80004026a900        0x0 bin/obj/arm/exceptions/handlers/el2/el2_cur_spx_serror.o
 .bss           0xffff80004026a900        0x0 bin/obj/arm/exceptions/handlers/el2/el2_low_a64_serror.o
 .bss           0xffff80004026a900        0x0 bin/obj/arm/exceptions/handlers/el2/el2_low_a64_sync.o
 .bss           0xffff80004026a900        0x0 bin/obj/arm/exceptions/handlers/el2/el2_cur_sp0_irq.o
 .bss           0xffff80004026a900        0x0 bin/obj/arm/exceptions/handlers/el2/el2_cur_sp0_serror.o
 .bss           0xffff80004026a900        0x0 bin/obj/arm/exceptions/handlers/el2/el2_low_a64_irq.o
 .bss           0xffff80004026a900        0x0 bin/obj/arm/exceptions/handlers/el2/el2_low_a64_fiq.o
 .bss           0xffff80004026a900        0x0 bin/obj/arm/exceptions/handlers/el2/el2_cur_spx_fiq.o
 .bss           0xffff80004026a900        0x0 bin/obj/arm/exceptions/handlers/el2/el2_low_a32_irq.o
 .bss           0xffff80004026a900        0x0 bin/obj/arm/exceptions/handlers/el2/el2_cur_sp0_fiq.o
 .bss           0xffff80004026a900        0x0 bin/obj/arm/exceptions/handlers/el2/el2_low_a32_fiq.o
 .bss           0xffff80004026a900        0x0 bin/obj/arm/exceptions/handlers/el2/el2_cur_spx_sync.o
 .bss           0xffff80004026a900        0x0 bin/obj/arm/exceptions/handlers/el2/el2_low_a32_sync.o
 .bss           0xffff80004026a900        0x0 bin/obj/arm/exceptions/handlers/el2/el2_cur_sp0_sync.o
 .bss           0xffff80004026a900        0x0 bin/obj/arm/exceptions/handlers/el2/el2_cur_spx_irq.o
 .bss           0xffff80004026a900        0x0 bin/obj/arm/exceptions/handlers/exception_macros.o
 .bss           0xffff80004026a900        0x0 bin/obj/arm/exceptions/exceptions.o
 .bss           0xffff80004026a900        0x0 bin/obj/arm/mmu/mmu.o
 .bss           0xffff80004026a900        0x0 bin/obj/arm/mmu/mmu_core.o
 .bss           0xffff80004026a900        0x0 bin/obj/arm/cpu.o
 .bss           0xffff80004026a900        0x0 bin/obj/lib/lock/corelock.o
 .bss           0xffff80004026a900        0x0 bin/obj/lib/lock/unlock_defer.o
 .bss           0xffff80004026a900        0x0 bin/obj/lib/string/string.o
 .bss           0xffff80004026a900        0x0 bin/obj/lib/string/fmt.o
 .bss           0xffff80004026a900        0x0 bin/obj/lib/mem/memcpy/memcpy.o
 .bss           0xffff80004026a900        0x0 bin/obj/lib/mem/mem.o
 .bss           0xffff80004026a900        0x0 bin/obj/drivers/arm_generic_timer/arm_generic_timer.o
 .bss           0xffff80004026a900        0x0 bin/obj/drivers/tmu/tmu.o
 .bss           0xffff80004026a900        0x0 bin/obj/drivers/interrupts/gicv3/gicv3.o
 .bss           0xffff80004026a900        0x8 bin/obj/drivers/uart/uart.o
 .bss           0xffff80004026a908        0x0 bin/obj/rslib.a(ee225a53f1a5b703-lse_ldadd4_acq_rel.o)
 .bss           0xffff80004026a908        0x0 bin/obj/rslib.a(ee225a53f1a5b703-lse_ldadd8_acq_rel.o)
 .bss           0xffff80004026a908        0x0 bin/obj/rslib.a(670c1ed24249df13-aarch64.o)
 .bss.__aarch64_cpu_features
                0xffff80004026a908        0x8 bin/obj/rslib.a(670c1ed24249df13-aarch64.o)
                0xffff80004026a908                __aarch64_cpu_features
 .bss.__aarch64_have_lse_atomics
                0xffff80004026a910        0x1 bin/obj/rslib.a(670c1ed24249df13-aarch64.o)
                0xffff80004026a910                __aarch64_have_lse_atomics
 *(COMMON)
                0xffff80004026b000                . = ALIGN (0x1000)
 *fill*         0xffff80004026a911      0x6ef 
                0xffff80004026b000                __bss_end = .
                0x000000000000b000                __bss_size = (__bss_end - __bss_start)

.stacks         0xffff80004026b000   0x480000 load address 0x0000000040260000
                0xffff80004026b000                __stacks_start = .
                0xffff80004026b000                __stacks_el2_start = .
                0xffff8000402eb000                . = (. + (__NUM_CORES * __EL2_STACK_SIZE))
 *fill*         0xffff80004026b000    0x80000 
                0xffff8000402eb000                __stacks_el2_end = .
                0xffff8000402eb000                . = ALIGN (0x10)
                0xffff8000402eb000                __stacks_el1_start = .
                0xffff8000406eb000                . = (. + (__NUM_CORES * __EL1_STACK_SIZE))
 *fill*         0xffff8000402eb000   0x400000 
                0xffff8000406eb000                __stacks_el1_end = .
                0xffff8000406eb000                . = ALIGN (0x1000)
                0xffff8000406eb000                __stacks_end = .
                0x0000000000480000                __stacks_size = (__stacks_end - __stacks_start)
                0xffff8000406eb000                __heap_start = .
                0xffffffffffffffff                __heap_end = 0xffffffffffffffff
                0x00007fffbf914fff                __heap_size = (__heap_end - __heap_start)
LOAD bin/obj/__kernel/mm/mm.o
LOAD bin/obj/__kernel/mm/reloc/reloc.o
LOAD bin/obj/__kernel/scheduler/scheduler.o
LOAD bin/obj/__arm/cache/cache.o
LOAD bin/obj/__arm/cache/icache.o
LOAD bin/obj/__arm/cache/dcache.o
LOAD bin/obj/__arm/tfa/smccc.o
LOAD bin/obj/__arm/sysregs/arm_generic_timer.o
LOAD bin/obj/__arm/exceptions/el2_vectors.o
LOAD bin/obj/__arm/exceptions/exceptions.o
LOAD bin/obj/__arm/exceptions/el1_vectors.o
LOAD bin/obj/__arm/cpu.o
LOAD bin/obj/__arm/mmu/regs/mmu_sysregs.o
LOAD bin/obj/__lib/lock/spinlock_irq.o
LOAD bin/obj/__lib/lock/spinlock.o
LOAD bin/obj/__lib/lock/irqlock.o
LOAD bin/obj/__lib/lock/corelock.o
LOAD bin/obj/__lib/mem/memcpy/memcpy.o
LOAD bin/obj/__lib/mem/memzero/memzero.o
LOAD bin/obj/__lib/mem/mem.o
LOAD bin/obj/__boot/clean_bss.o
LOAD bin/obj/__boot/el1.o
LOAD bin/obj/__boot/stacks.o
LOAD bin/obj/__boot/secondary_entry.o
LOAD bin/obj/__boot/gpr.o
LOAD bin/obj/__boot/boot.o
LOAD bin/obj/__drivers/tmu/tmu_critical_default.o
LOAD bin/obj/__drivers/interrupts/gicv3/gicv3_arm_interface.o
LOAD bin/obj/kernel/devices/drivers.o
LOAD bin/obj/kernel/init/early_init.o
LOAD bin/obj/kernel/init/init_drivers.o
LOAD bin/obj/kernel/init/init.o
LOAD bin/obj/kernel/lib/smp.o
LOAD bin/obj/kernel/lib/kvec.o
LOAD bin/obj/kernel/mm/phys/page_allocator.o
LOAD bin/obj/kernel/mm/init/mem_regions/mem_regions.o
LOAD bin/obj/kernel/mm/init/mem_regions/early_kalloc.o
LOAD bin/obj/kernel/mm/init/init.o
LOAD bin/obj/kernel/mm/init/identity_mapping.o
LOAD bin/obj/kernel/mm/virt/containers/containers.o
LOAD bin/obj/kernel/mm/virt/mdt/mdt.o
LOAD bin/obj/kernel/mm/virt/vmalloc.o
LOAD bin/obj/kernel/mm/malloc/raw_kmalloc/raw_kmalloc.o
LOAD bin/obj/kernel/mm/malloc/cache_malloc/cache_malloc.o
LOAD bin/obj/kernel/mm/malloc/internal/reserve_malloc.o
LOAD bin/obj/kernel/mm/malloc/kmalloc/kmalloc.o
LOAD bin/obj/kernel/mm/malloc/umalloc.o
LOAD bin/obj/kernel/mm/reloc/reloc.o
LOAD bin/obj/kernel/mm/mm_mmu/mm_mmu.o
LOAD bin/obj/kernel/mm/mm.o
LOAD bin/obj/kernel/mm/mm_info.o
LOAD bin/obj/kernel/mm/elf.o
LOAD bin/obj/kernel/io/term/buffers.o
LOAD bin/obj/kernel/io/term/term.o
LOAD bin/obj/kernel/io/stdio.o
LOAD bin/obj/kernel/io/stdputc.o
LOAD bin/obj/kernel/panic/panic_exception/esr/data_abort.o
LOAD bin/obj/kernel/panic/panic_exception/esr/esr.o
LOAD bin/obj/kernel/panic/panic_exception/panic_exception_handlers.o
LOAD bin/obj/kernel/panic/panic.o
LOAD bin/obj/kernel/exception/el0/sync/sync.o
LOAD bin/obj/kernel/exception/el1/irq.o
LOAD bin/obj/kernel/scheduler/task.o
LOAD bin/obj/kernel/scheduler/scheduler.o
LOAD bin/obj/kernel/scheduler/thread.o
LOAD bin/obj/kernel/syscall/handlers/exit.o
LOAD bin/obj/kernel/syscall/handlers/print.o
LOAD bin/obj/kernel/syscall/syscall.o
LOAD bin/obj/kernel/userspace_embedded_examples.o
LOAD bin/obj/kernel/kernel_entry.o
LOAD bin/obj/arm/tfa/smccc.o
LOAD bin/obj/arm/exceptions/handlers/el1/el1_low_a32_serror.o
LOAD bin/obj/arm/exceptions/handlers/el1/el1_low_a32_fiq.o
LOAD bin/obj/arm/exceptions/handlers/el1/el1_cur_spx_fiq.o
LOAD bin/obj/arm/exceptions/handlers/el1/el1_cur_spx_serror.o
LOAD bin/obj/arm/exceptions/handlers/el1/el1_low_a32_irq.o
LOAD bin/obj/arm/exceptions/handlers/el1/el1_low_a64_fiq.o
LOAD bin/obj/arm/exceptions/handlers/el1/el1_cur_sp0_sync.o
LOAD bin/obj/arm/exceptions/handlers/el1/el1_low_a64_serror.o
LOAD bin/obj/arm/exceptions/handlers/el1/el1_low_a32_sync.o
LOAD bin/obj/arm/exceptions/handlers/el1/el1_cur_spx_sync.o
LOAD bin/obj/arm/exceptions/handlers/el1/el1_cur_sp0_fiq.o
LOAD bin/obj/arm/exceptions/handlers/el1/el1_cur_sp0_serror.o
LOAD bin/obj/arm/exceptions/handlers/el1/el1_cur_sp0_irq.o
LOAD bin/obj/arm/exceptions/handlers/el1/el1_cur_spx_irq.o
LOAD bin/obj/arm/exceptions/handlers/el1/el1_low_a64_irq.o
LOAD bin/obj/arm/exceptions/handlers/el1/el1_low_a64_sync.o
LOAD bin/obj/arm/exceptions/handlers/el2/el2_low_a32_serror.o
LOAD bin/obj/arm/exceptions/handlers/el2/el2_cur_spx_serror.o
LOAD bin/obj/arm/exceptions/handlers/el2/el2_low_a64_serror.o
LOAD bin/obj/arm/exceptions/handlers/el2/el2_low_a64_sync.o
LOAD bin/obj/arm/exceptions/handlers/el2/el2_cur_sp0_irq.o
LOAD bin/obj/arm/exceptions/handlers/el2/el2_cur_sp0_serror.o
LOAD bin/obj/arm/exceptions/handlers/el2/el2_low_a64_irq.o
LOAD bin/obj/arm/exceptions/handlers/el2/el2_low_a64_fiq.o
LOAD bin/obj/arm/exceptions/handlers/el2/el2_cur_spx_fiq.o
LOAD bin/obj/arm/exceptions/handlers/el2/el2_low_a32_irq.o
LOAD bin/obj/arm/exceptions/handlers/el2/el2_cur_sp0_fiq.o
LOAD bin/obj/arm/exceptions/handlers/el2/el2_low_a32_fiq.o
LOAD bin/obj/arm/exceptions/handlers/el2/el2_cur_spx_sync.o
LOAD bin/obj/arm/exceptions/handlers/el2/el2_low_a32_sync.o
LOAD bin/obj/arm/exceptions/handlers/el2/el2_cur_sp0_sync.o
LOAD bin/obj/arm/exceptions/handlers/el2/el2_cur_spx_irq.o
LOAD bin/obj/arm/exceptions/handlers/exception_macros.o
LOAD bin/obj/arm/exceptions/exceptions.o
LOAD bin/obj/arm/mmu/mmu.o
LOAD bin/obj/arm/mmu/mmu_core.o
LOAD bin/obj/arm/cpu.o
LOAD bin/obj/lib/lock/corelock.o
LOAD bin/obj/lib/lock/unlock_defer.o
LOAD bin/obj/lib/string/string.o
LOAD bin/obj/lib/string/fmt.o
LOAD bin/obj/lib/mem/memcpy/memcpy.o
LOAD bin/obj/lib/mem/mem.o
LOAD bin/obj/drivers/arm_generic_timer/arm_generic_timer.o
LOAD bin/obj/drivers/tmu/tmu.o
LOAD bin/obj/drivers/interrupts/gicv3/gicv3.o
LOAD bin/obj/drivers/uart/uart.o
LOAD bin/obj/rslib.a
OUTPUT(bin/kernel.elf elf64-littleaarch64)
LOAD linker stubs

.comment        0x0000000000000000       0xcb
 .comment       0x0000000000000000       0xcb bin/obj/kernel/devices/drivers.o
                                         0x46 (size before relaxing)
 .comment       0x00000000000000cb        0x0 bin/obj/kernel/init/early_init.o
                                         0x46 (size before relaxing)
 .comment       0x00000000000000cb        0x0 bin/obj/kernel/init/init_drivers.o
                                         0x46 (size before relaxing)
 .comment       0x00000000000000cb        0x0 bin/obj/kernel/init/init.o
                                         0x46 (size before relaxing)
 .comment       0x00000000000000cb        0x0 bin/obj/kernel/lib/smp.o
                                         0x46 (size before relaxing)
 .comment       0x00000000000000cb        0x0 bin/obj/kernel/lib/kvec.o
                                         0x46 (size before relaxing)
 .comment       0x00000000000000cb        0x0 bin/obj/kernel/mm/phys/page_allocator.o
                                         0x46 (size before relaxing)
 .comment       0x00000000000000cb        0x0 bin/obj/kernel/mm/init/mem_regions/mem_regions.o
                                         0x46 (size before relaxing)
 .comment       0x00000000000000cb        0x0 bin/obj/kernel/mm/init/mem_regions/early_kalloc.o
                                         0x46 (size before relaxing)
 .comment       0x00000000000000cb        0x0 bin/obj/kernel/mm/init/init.o
                                         0x46 (size before relaxing)
 .comment       0x00000000000000cb        0x0 bin/obj/kernel/mm/init/identity_mapping.o
                                         0x46 (size before relaxing)
 .comment       0x00000000000000cb        0x0 bin/obj/kernel/mm/virt/containers/containers.o
                                         0x46 (size before relaxing)
 .comment       0x00000000000000cb        0x0 bin/obj/kernel/mm/virt/mdt/mdt.o
                                         0x46 (size before relaxing)
 .comment       0x00000000000000cb        0x0 bin/obj/kernel/mm/virt/vmalloc.o
                                         0x46 (size before relaxing)
 .comment       0x00000000000000cb        0x0 bin/obj/kernel/mm/malloc/raw_kmalloc/raw_kmalloc.o
                                         0x46 (size before relaxing)
 .comment       0x00000000000000cb        0x0 bin/obj/kernel/mm/malloc/cache_malloc/cache_malloc.o
                                         0x46 (size before relaxing)
 .comment       0x00000000000000cb        0x0 bin/obj/kernel/mm/malloc/internal/reserve_malloc.o
                                         0x46 (size before relaxing)
 .comment       0x00000000000000cb        0x0 bin/obj/kernel/mm/malloc/kmalloc/kmalloc.o
                                         0x46 (size before relaxing)
 .comment       0x00000000000000cb        0x0 bin/obj/kernel/mm/malloc/umalloc.o
                                         0x46 (size before relaxing)
 .comment       0x00000000000000cb        0x0 bin/obj/kernel/mm/reloc/reloc.o
                                         0x46 (size before relaxing)
 .comment       0x00000000000000cb        0x0 bin/obj/kernel/mm/mm_mmu/mm_mmu.o
                                         0x46 (size before relaxing)
 .comment       0x00000000000000cb        0x0 bin/obj/kernel/mm/mm.o
                                         0x46 (size before relaxing)
 .comment       0x00000000000000cb        0x0 bin/obj/kernel/mm/mm_info.o
                                         0x46 (size before relaxing)
 .comment       0x00000000000000cb        0x0 bin/obj/kernel/mm/elf.o
                                         0x46 (size before relaxing)
 .comment       0x00000000000000cb        0x0 bin/obj/kernel/io/term/buffers.o
                                         0x46 (size before relaxing)
 .comment       0x00000000000000cb        0x0 bin/obj/kernel/io/term/term.o
                                         0x46 (size before relaxing)
 .comment       0x00000000000000cb        0x0 bin/obj/kernel/io/stdio.o
                                         0x46 (size before relaxing)
 .comment       0x00000000000000cb        0x0 bin/obj/kernel/io/stdputc.o
                                         0x46 (size before relaxing)
 .comment       0x00000000000000cb        0x0 bin/obj/kernel/panic/panic_exception/esr/data_abort.o
                                         0x46 (size before relaxing)
 .comment       0x00000000000000cb        0x0 bin/obj/kernel/panic/panic_exception/esr/esr.o
                                         0x46 (size before relaxing)
 .comment       0x00000000000000cb        0x0 bin/obj/kernel/panic/panic_exception/panic_exception_handlers.o
                                         0x46 (size before relaxing)
 .comment       0x00000000000000cb        0x0 bin/obj/kernel/panic/panic.o
                                         0x46 (size before relaxing)
 .comment       0x00000000000000cb        0x0 bin/obj/kernel/exception/el0/sync/sync.o
                                         0x46 (size before relaxing)
 .comment       0x00000000000000cb        0x0 bin/obj/kernel/exception/el1/irq.o
                                         0x46 (size before relaxing)
 .comment       0x00000000000000cb        0x0 bin/obj/kernel/scheduler/task.o
                                         0x46 (size before relaxing)
 .comment       0x00000000000000cb        0x0 bin/obj/kernel/scheduler/scheduler.o
                                         0x46 (size before relaxing)
 .comment       0x00000000000000cb        0x0 bin/obj/kernel/scheduler/thread.o
                                         0x46 (size before relaxing)
 .comment       0x00000000000000cb        0x0 bin/obj/kernel/syscall/handlers/exit.o
                                         0x46 (size before relaxing)
 .comment       0x00000000000000cb        0x0 bin/obj/kernel/syscall/handlers/print.o
                                         0x46 (size before relaxing)
 .comment       0x00000000000000cb        0x0 bin/obj/kernel/syscall/syscall.o
                                         0x46 (size before relaxing)
 .comment       0x00000000000000cb        0x0 bin/obj/kernel/userspace_embedded_examples.o
                                         0x46 (size before relaxing)
 .comment       0x00000000000000cb        0x0 bin/obj/kernel/kernel_entry.o
                                         0x46 (size before relaxing)
 .comment       0x00000000000000cb        0x0 bin/obj/arm/tfa/smccc.o
                                         0x46 (size before relaxing)
 .comment       0x00000000000000cb        0x0 bin/obj/arm/exceptions/handlers/el1/el1_low_a32_serror.o
                                         0x46 (size before relaxing)
 .comment       0x00000000000000cb        0x0 bin/obj/arm/exceptions/handlers/el1/el1_low_a32_fiq.o
                                         0x46 (size before relaxing)
 .comment       0x00000000000000cb        0x0 bin/obj/arm/exceptions/handlers/el1/el1_cur_spx_fiq.o
                                         0x46 (size before relaxing)
 .comment       0x00000000000000cb        0x0 bin/obj/arm/exceptions/handlers/el1/el1_cur_spx_serror.o
                                         0x46 (size before relaxing)
 .comment       0x00000000000000cb        0x0 bin/obj/arm/exceptions/handlers/el1/el1_low_a32_irq.o
                                         0x46 (size before relaxing)
 .comment       0x00000000000000cb        0x0 bin/obj/arm/exceptions/handlers/el1/el1_low_a64_fiq.o
                                         0x46 (size before relaxing)
 .comment       0x00000000000000cb        0x0 bin/obj/arm/exceptions/handlers/el1/el1_cur_sp0_sync.o
                                         0x46 (size before relaxing)
 .comment       0x00000000000000cb        0x0 bin/obj/arm/exceptions/handlers/el1/el1_low_a64_serror.o
                                         0x46 (size before relaxing)
 .comment       0x00000000000000cb        0x0 bin/obj/arm/exceptions/handlers/el1/el1_low_a32_sync.o
                                         0x46 (size before relaxing)
 .comment       0x00000000000000cb        0x0 bin/obj/arm/exceptions/handlers/el1/el1_cur_spx_sync.o
                                         0x46 (size before relaxing)
 .comment       0x00000000000000cb        0x0 bin/obj/arm/exceptions/handlers/el1/el1_cur_sp0_fiq.o
                                         0x46 (size before relaxing)
 .comment       0x00000000000000cb        0x0 bin/obj/arm/exceptions/handlers/el1/el1_cur_sp0_serror.o
                                         0x46 (size before relaxing)
 .comment       0x00000000000000cb        0x0 bin/obj/arm/exceptions/handlers/el1/el1_cur_sp0_irq.o
                                         0x46 (size before relaxing)
 .comment       0x00000000000000cb        0x0 bin/obj/arm/exceptions/handlers/el1/el1_cur_spx_irq.o
                                         0x46 (size before relaxing)
 .comment       0x00000000000000cb        0x0 bin/obj/arm/exceptions/handlers/el1/el1_low_a64_irq.o
                                         0x46 (size before relaxing)
 .comment       0x00000000000000cb        0x0 bin/obj/arm/exceptions/handlers/el1/el1_low_a64_sync.o
                                         0x46 (size before relaxing)
 .comment       0x00000000000000cb        0x0 bin/obj/arm/exceptions/handlers/el2/el2_low_a32_serror.o
                                         0x46 (size before relaxing)
 .comment       0x00000000000000cb        0x0 bin/obj/arm/exceptions/handlers/el2/el2_cur_spx_serror.o
                                         0x46 (size before relaxing)
 .comment       0x00000000000000cb        0x0 bin/obj/arm/exceptions/handlers/el2/el2_low_a64_serror.o
                                         0x46 (size before relaxing)
 .comment       0x00000000000000cb        0x0 bin/obj/arm/exceptions/handlers/el2/el2_low_a64_sync.o
                                         0x46 (size before relaxing)
 .comment       0x00000000000000cb        0x0 bin/obj/arm/exceptions/handlers/el2/el2_cur_sp0_irq.o
                                         0x46 (size before relaxing)
 .comment       0x00000000000000cb        0x0 bin/obj/arm/exceptions/handlers/el2/el2_cur_sp0_serror.o
                                         0x46 (size before relaxing)
 .comment       0x00000000000000cb        0x0 bin/obj/arm/exceptions/handlers/el2/el2_low_a64_irq.o
                                         0x46 (size before relaxing)
 .comment       0x00000000000000cb        0x0 bin/obj/arm/exceptions/handlers/el2/el2_low_a64_fiq.o
                                         0x46 (size before relaxing)
 .comment       0x00000000000000cb        0x0 bin/obj/arm/exceptions/handlers/el2/el2_cur_spx_fiq.o
                                         0x46 (size before relaxing)
 .comment       0x00000000000000cb        0x0 bin/obj/arm/exceptions/handlers/el2/el2_low_a32_irq.o
                                         0x46 (size before relaxing)
 .comment       0x00000000000000cb        0x0 bin/obj/arm/exceptions/handlers/el2/el2_cur_sp0_fiq.o
                                         0x46 (size before relaxing)
 .comment       0x00000000000000cb        0x0 bin/obj/arm/exceptions/handlers/el2/el2_low_a32_fiq.o
                                         0x46 (size before relaxing)
 .comment       0x00000000000000cb        0x0 bin/obj/arm/exceptions/handlers/el2/el2_cur_spx_sync.o
                                         0x46 (size before relaxing)
 .comment       0x00000000000000cb        0x0 bin/obj/arm/exceptions/handlers/el2/el2_low_a32_sync.o
                                         0x46 (size before relaxing)
 .comment       0x00000000000000cb        0x0 bin/obj/arm/exceptions/handlers/el2/el2_cur_sp0_sync.o
                                         0x46 (size before relaxing)
 .comment       0x00000000000000cb        0x0 bin/obj/arm/exceptions/handlers/el2/el2_cur_spx_irq.o
                                         0x46 (size before relaxing)
 .comment       0x00000000000000cb        0x0 bin/obj/arm/exceptions/handlers/exception_macros.o
                                         0x46 (size before relaxing)
 .comment       0x00000000000000cb        0x0 bin/obj/arm/exceptions/exceptions.o
                                         0x46 (size before relaxing)
 .comment       0x00000000000000cb        0x0 bin/obj/arm/mmu/mmu.o
                                         0x46 (size before relaxing)
 .comment       0x00000000000000cb        0x0 bin/obj/arm/mmu/mmu_core.o
                                         0x46 (size before relaxing)
 .comment       0x00000000000000cb        0x0 bin/obj/arm/cpu.o
                                         0x46 (size before relaxing)
 .comment       0x00000000000000cb        0x0 bin/obj/lib/lock/corelock.o
                                         0x46 (size before relaxing)
 .comment       0x00000000000000cb        0x0 bin/obj/lib/lock/unlock_defer.o
                                         0x46 (size before relaxing)
 .comment       0x00000000000000cb        0x0 bin/obj/lib/string/string.o
                                         0x46 (size before relaxing)
 .comment       0x00000000000000cb        0x0 bin/obj/lib/string/fmt.o
                                         0x46 (size before relaxing)
 .comment       0x00000000000000cb        0x0 bin/obj/lib/mem/memcpy/memcpy.o
                                         0x46 (size before relaxing)
 .comment       0x00000000000000cb        0x0 bin/obj/lib/mem/mem.o
                                         0x46 (size before relaxing)
 .comment       0x00000000000000cb        0x0 bin/obj/drivers/arm_generic_timer/arm_generic_timer.o
                                         0x46 (size before relaxing)
 .comment       0x00000000000000cb        0x0 bin/obj/drivers/tmu/tmu.o
                                         0x46 (size before relaxing)
 .comment       0x00000000000000cb        0x0 bin/obj/drivers/interrupts/gicv3/gicv3.o
                                         0x46 (size before relaxing)
 .comment       0x00000000000000cb        0x0 bin/obj/drivers/uart/uart.o
                                         0x46 (size before relaxing)
 .comment       0x00000000000000cb        0x0 bin/obj/rslib.a(imx8mp_kernel-1a53598e06c50be6.imx8mp_kernel.241a9a11e0e6ae75-cgu.0.rcgu.o)
                                         0x2d (size before relaxing)
 .comment       0x00000000000000cb        0x0 bin/obj/rslib.a(core-dca77d77b03929cc.core.bbd04c23a4fa3c72-cgu.0.rcgu.o)
                                         0x2d (size before relaxing)
 .comment       0x00000000000000cb        0x0 bin/obj/rslib.a(compiler_builtins-fabd8ee97a026881.compiler_builtins.f286be164c3a919f-cgu.099.rcgu.o)
                                         0x2d (size before relaxing)
 .comment       0x00000000000000cb        0x0 bin/obj/rslib.a(compiler_builtins-fabd8ee97a026881.compiler_builtins.f286be164c3a919f-cgu.173.rcgu.o)
                                         0x2d (size before relaxing)
 .comment       0x00000000000000cb        0x0 bin/obj/rslib.a(compiler_builtins-fabd8ee97a026881.compiler_builtins.f286be164c3a919f-cgu.242.rcgu.o)
                                         0x2d (size before relaxing)
 .comment       0x00000000000000cb        0x0 bin/obj/rslib.a(compiler_builtins-fabd8ee97a026881.compiler_builtins.f286be164c3a919f-cgu.295.rcgu.o)
                                         0x2d (size before relaxing)
 .comment       0x00000000000000cb        0x0 bin/obj/rslib.a(670c1ed24249df13-aarch64.o)
                                         0x5b (size before relaxing)
 .comment       0x00000000000000cb        0x0 bin/obj/rslib.a(compiler_builtins-fabd8ee97a026881.compiler_builtins.f286be164c3a919f-cgu.018.rcgu.o)
                                         0x2d (size before relaxing)

.note.GNU-stack
                0x0000000000000000        0x0
 .note.GNU-stack
                0x0000000000000000        0x0 bin/obj/rslib.a(imx8mp_kernel-1a53598e06c50be6.imx8mp_kernel.241a9a11e0e6ae75-cgu.0.rcgu.o)
 .note.GNU-stack
                0x0000000000000000        0x0 bin/obj/rslib.a(core-dca77d77b03929cc.core.bbd04c23a4fa3c72-cgu.0.rcgu.o)
 .note.GNU-stack
                0x0000000000000000        0x0 bin/obj/rslib.a(compiler_builtins-fabd8ee97a026881.compiler_builtins.f286be164c3a919f-cgu.099.rcgu.o)
 .note.GNU-stack
                0x0000000000000000        0x0 bin/obj/rslib.a(compiler_builtins-fabd8ee97a026881.compiler_builtins.f286be164c3a919f-cgu.173.rcgu.o)
 .note.GNU-stack
                0x0000000000000000        0x0 bin/obj/rslib.a(compiler_builtins-fabd8ee97a026881.compiler_builtins.f286be164c3a919f-cgu.242.rcgu.o)
 .note.GNU-stack
                0x0000000000000000        0x0 bin/obj/rslib.a(compiler_builtins-fabd8ee97a026881.compiler_builtins.f286be164c3a919f-cgu.295.rcgu.o)
 .note.GNU-stack
                0x0000000000000000        0x0 bin/obj/rslib.a(compiler_builtins-fabd8ee97a026881.compiler_builtins.f286be164c3a919f-cgu.018.rcgu.o)

.debug_loc      0x0000000000000000      0xcf7
 .debug_loc     0x0000000000000000      0xcf7 bin/obj/rslib.a(imx8mp_kernel-1a53598e06c50be6.imx8mp_kernel.241a9a11e0e6ae75-cgu.0.rcgu.o)

.debug_abbrev   0x0000000000000000      0xa7a
 .debug_abbrev  0x0000000000000000      0x2d9 bin/obj/rslib.a(imx8mp_kernel-1a53598e06c50be6.imx8mp_kernel.241a9a11e0e6ae75-cgu.0.rcgu.o)
 .debug_abbrev  0x00000000000002d9      0x2ff bin/obj/rslib.a(core-dca77d77b03929cc.core.bbd04c23a4fa3c72-cgu.0.rcgu.o)
 .debug_abbrev  0x00000000000005d8       0x5f bin/obj/rslib.a(compiler_builtins-fabd8ee97a026881.compiler_builtins.f286be164c3a919f-cgu.099.rcgu.o)
 .debug_abbrev  0x0000000000000637      0x104 bin/obj/rslib.a(compiler_builtins-fabd8ee97a026881.compiler_builtins.f286be164c3a919f-cgu.173.rcgu.o)
 .debug_abbrev  0x000000000000073b       0x5f bin/obj/rslib.a(compiler_builtins-fabd8ee97a026881.compiler_builtins.f286be164c3a919f-cgu.242.rcgu.o)
 .debug_abbrev  0x000000000000079a       0xc1 bin/obj/rslib.a(compiler_builtins-fabd8ee97a026881.compiler_builtins.f286be164c3a919f-cgu.295.rcgu.o)
 .debug_abbrev  0x000000000000085b       0x14 bin/obj/rslib.a(ee225a53f1a5b703-lse_ldadd4_acq_rel.o)
 .debug_abbrev  0x000000000000086f       0x14 bin/obj/rslib.a(ee225a53f1a5b703-lse_ldadd8_acq_rel.o)
 .debug_abbrev  0x0000000000000883       0xda bin/obj/rslib.a(670c1ed24249df13-aarch64.o)
 .debug_abbrev  0x000000000000095d      0x11d bin/obj/rslib.a(compiler_builtins-fabd8ee97a026881.compiler_builtins.f286be164c3a919f-cgu.018.rcgu.o)

.debug_info     0x0000000000000000    0x25ebd
 .debug_info    0x0000000000000000     0x144f bin/obj/rslib.a(imx8mp_kernel-1a53598e06c50be6.imx8mp_kernel.241a9a11e0e6ae75-cgu.0.rcgu.o)
 .debug_info    0x000000000000144f    0x23e7b bin/obj/rslib.a(core-dca77d77b03929cc.core.bbd04c23a4fa3c72-cgu.0.rcgu.o)
 .debug_info    0x00000000000252ca       0x9e bin/obj/rslib.a(compiler_builtins-fabd8ee97a026881.compiler_builtins.f286be164c3a919f-cgu.099.rcgu.o)
 .debug_info    0x0000000000025368      0x333 bin/obj/rslib.a(compiler_builtins-fabd8ee97a026881.compiler_builtins.f286be164c3a919f-cgu.173.rcgu.o)
 .debug_info    0x000000000002569b       0xad bin/obj/rslib.a(compiler_builtins-fabd8ee97a026881.compiler_builtins.f286be164c3a919f-cgu.242.rcgu.o)
 .debug_info    0x0000000000025748      0x24c bin/obj/rslib.a(compiler_builtins-fabd8ee97a026881.compiler_builtins.f286be164c3a919f-cgu.295.rcgu.o)
 .debug_info    0x0000000000025994       0x2e bin/obj/rslib.a(ee225a53f1a5b703-lse_ldadd4_acq_rel.o)
 .debug_info    0x00000000000259c2       0x2e bin/obj/rslib.a(ee225a53f1a5b703-lse_ldadd8_acq_rel.o)
 .debug_info    0x00000000000259f0      0x12a bin/obj/rslib.a(670c1ed24249df13-aarch64.o)
 .debug_info    0x0000000000025b1a      0x3a3 bin/obj/rslib.a(compiler_builtins-fabd8ee97a026881.compiler_builtins.f286be164c3a919f-cgu.018.rcgu.o)

.debug_aranges  0x0000000000000000     0x24f0
 .debug_aranges
                0x0000000000000000       0xe0 bin/obj/rslib.a(imx8mp_kernel-1a53598e06c50be6.imx8mp_kernel.241a9a11e0e6ae75-cgu.0.rcgu.o)
 .debug_aranges
                0x00000000000000e0     0x2280 bin/obj/rslib.a(core-dca77d77b03929cc.core.bbd04c23a4fa3c72-cgu.0.rcgu.o)
 .debug_aranges
                0x0000000000002360       0x30 bin/obj/rslib.a(compiler_builtins-fabd8ee97a026881.compiler_builtins.f286be164c3a919f-cgu.099.rcgu.o)
 .debug_aranges
                0x0000000000002390       0x30 bin/obj/rslib.a(compiler_builtins-fabd8ee97a026881.compiler_builtins.f286be164c3a919f-cgu.173.rcgu.o)
 .debug_aranges
                0x00000000000023c0       0x30 bin/obj/rslib.a(compiler_builtins-fabd8ee97a026881.compiler_builtins.f286be164c3a919f-cgu.242.rcgu.o)
 .debug_aranges
                0x00000000000023f0       0x30 bin/obj/rslib.a(compiler_builtins-fabd8ee97a026881.compiler_builtins.f286be164c3a919f-cgu.295.rcgu.o)
 .debug_aranges
                0x0000000000002420       0x30 bin/obj/rslib.a(ee225a53f1a5b703-lse_ldadd4_acq_rel.o)
 .debug_aranges
                0x0000000000002450       0x30 bin/obj/rslib.a(ee225a53f1a5b703-lse_ldadd8_acq_rel.o)
 .debug_aranges
                0x0000000000002480       0x40 bin/obj/rslib.a(670c1ed24249df13-aarch64.o)
 .debug_aranges
                0x00000000000024c0       0x30 bin/obj/rslib.a(compiler_builtins-fabd8ee97a026881.compiler_builtins.f286be164c3a919f-cgu.018.rcgu.o)

.debug_ranges   0x0000000000000000    0x1bb00
 .debug_ranges  0x0000000000000000      0x500 bin/obj/rslib.a(imx8mp_kernel-1a53598e06c50be6.imx8mp_kernel.241a9a11e0e6ae75-cgu.0.rcgu.o)
 .debug_ranges  0x0000000000000500    0x1b320 bin/obj/rslib.a(core-dca77d77b03929cc.core.bbd04c23a4fa3c72-cgu.0.rcgu.o)
 .debug_ranges  0x000000000001b820       0x90 bin/obj/rslib.a(compiler_builtins-fabd8ee97a026881.compiler_builtins.f286be164c3a919f-cgu.173.rcgu.o)
 .debug_ranges  0x000000000001b8b0       0x90 bin/obj/rslib.a(compiler_builtins-fabd8ee97a026881.compiler_builtins.f286be164c3a919f-cgu.295.rcgu.o)
 .debug_ranges  0x000000000001b940       0x30 bin/obj/rslib.a(670c1ed24249df13-aarch64.o)
 .debug_ranges  0x000000000001b970      0x190 bin/obj/rslib.a(compiler_builtins-fabd8ee97a026881.compiler_builtins.f286be164c3a919f-cgu.018.rcgu.o)

.debug_str      0x0000000000000000    0x3c0e4
 .debug_str     0x0000000000000000    0x3c0e4 bin/obj/rslib.a(imx8mp_kernel-1a53598e06c50be6.imx8mp_kernel.241a9a11e0e6ae75-cgu.0.rcgu.o)
                                       0x1162 (size before relaxing)
 .debug_str     0x000000000003c0e4        0x0 bin/obj/rslib.a(core-dca77d77b03929cc.core.bbd04c23a4fa3c72-cgu.0.rcgu.o)
                                      0x3a6b4 (size before relaxing)
 .debug_str     0x000000000003c0e4        0x0 bin/obj/rslib.a(compiler_builtins-fabd8ee97a026881.compiler_builtins.f286be164c3a919f-cgu.099.rcgu.o)
                                        0x178 (size before relaxing)
 .debug_str     0x000000000003c0e4        0x0 bin/obj/rslib.a(compiler_builtins-fabd8ee97a026881.compiler_builtins.f286be164c3a919f-cgu.173.rcgu.o)
                                        0x7b4 (size before relaxing)
 .debug_str     0x000000000003c0e4        0x0 bin/obj/rslib.a(compiler_builtins-fabd8ee97a026881.compiler_builtins.f286be164c3a919f-cgu.242.rcgu.o)
                                        0x194 (size before relaxing)
 .debug_str     0x000000000003c0e4        0x0 bin/obj/rslib.a(compiler_builtins-fabd8ee97a026881.compiler_builtins.f286be164c3a919f-cgu.295.rcgu.o)
                                        0x47f (size before relaxing)
 .debug_str     0x000000000003c0e4        0x0 bin/obj/rslib.a(ee225a53f1a5b703-lse_ldadd4_acq_rel.o)
                                         0x86 (size before relaxing)
 .debug_str     0x000000000003c0e4        0x0 bin/obj/rslib.a(ee225a53f1a5b703-lse_ldadd8_acq_rel.o)
                                         0x86 (size before relaxing)
 .debug_str     0x000000000003c0e4        0x0 bin/obj/rslib.a(670c1ed24249df13-aarch64.o)
                                        0x1db (size before relaxing)
 .debug_str     0x000000000003c0e4        0x0 bin/obj/rslib.a(compiler_builtins-fabd8ee97a026881.compiler_builtins.f286be164c3a919f-cgu.018.rcgu.o)
                                        0x4f9 (size before relaxing)

.debug_frame    0x0000000000000000     0x4a60
 .debug_frame   0x0000000000000000      0x168 bin/obj/rslib.a(imx8mp_kernel-1a53598e06c50be6.imx8mp_kernel.241a9a11e0e6ae75-cgu.0.rcgu.o)
 .debug_frame   0x0000000000000168     0x47c0 bin/obj/rslib.a(core-dca77d77b03929cc.core.bbd04c23a4fa3c72-cgu.0.rcgu.o)
 .debug_frame   0x0000000000004928       0x30 bin/obj/rslib.a(compiler_builtins-fabd8ee97a026881.compiler_builtins.f286be164c3a919f-cgu.099.rcgu.o)
 .debug_frame   0x0000000000004958       0x30 bin/obj/rslib.a(compiler_builtins-fabd8ee97a026881.compiler_builtins.f286be164c3a919f-cgu.173.rcgu.o)
 .debug_frame   0x0000000000004988       0x38 bin/obj/rslib.a(compiler_builtins-fabd8ee97a026881.compiler_builtins.f286be164c3a919f-cgu.242.rcgu.o)
 .debug_frame   0x00000000000049c0       0x30 bin/obj/rslib.a(compiler_builtins-fabd8ee97a026881.compiler_builtins.f286be164c3a919f-cgu.295.rcgu.o)
 .debug_frame   0x00000000000049f0       0x40 bin/obj/rslib.a(670c1ed24249df13-aarch64.o)
 .debug_frame   0x0000000000004a30       0x30 bin/obj/rslib.a(compiler_builtins-fabd8ee97a026881.compiler_builtins.f286be164c3a919f-cgu.018.rcgu.o)

.debug_line     0x0000000000000000    0x1bc20
 .debug_line    0x0000000000000000      0x5c5 bin/obj/rslib.a(imx8mp_kernel-1a53598e06c50be6.imx8mp_kernel.241a9a11e0e6ae75-cgu.0.rcgu.o)
 .debug_line    0x00000000000005c5    0x1a93a bin/obj/rslib.a(core-dca77d77b03929cc.core.bbd04c23a4fa3c72-cgu.0.rcgu.o)
 .debug_line    0x000000000001aeff       0xd4 bin/obj/rslib.a(compiler_builtins-fabd8ee97a026881.compiler_builtins.f286be164c3a919f-cgu.099.rcgu.o)
 .debug_line    0x000000000001afd3      0x392 bin/obj/rslib.a(compiler_builtins-fabd8ee97a026881.compiler_builtins.f286be164c3a919f-cgu.173.rcgu.o)
 .debug_line    0x000000000001b365      0x11b bin/obj/rslib.a(compiler_builtins-fabd8ee97a026881.compiler_builtins.f286be164c3a919f-cgu.242.rcgu.o)
 .debug_line    0x000000000001b480      0x2e4 bin/obj/rslib.a(compiler_builtins-fabd8ee97a026881.compiler_builtins.f286be164c3a919f-cgu.295.rcgu.o)
 .debug_line    0x000000000001b764       0x7d bin/obj/rslib.a(ee225a53f1a5b703-lse_ldadd4_acq_rel.o)
 .debug_line    0x000000000001b7e1       0x7d bin/obj/rslib.a(ee225a53f1a5b703-lse_ldadd8_acq_rel.o)
 .debug_line    0x000000000001b85e       0xb1 bin/obj/rslib.a(670c1ed24249df13-aarch64.o)
 .debug_line    0x000000000001b90f      0x311 bin/obj/rslib.a(compiler_builtins-fabd8ee97a026881.compiler_builtins.f286be164c3a919f-cgu.018.rcgu.o)
